
/root/nobs_a6ad4001a8a7ba83c0c1c448bae441b321dadfd93b2cdb0fa9a365db7c09c4a4:     file format elf64-littleriscv


Disassembly of section .plt:

00000000000103b0 <fprintf@plt-0x20>:
   103b0:	0000b397          	auipc	t2,0xb
   103b4:	41c30333          	sub	t1,t1,t3
   103b8:	c503be03          	ld	t3,-944(t2) # 1b000 <puts@plt+0xac10>
   103bc:	fd430313          	addi	t1,t1,-44
   103c0:	c5038293          	addi	t0,t2,-944
   103c4:	00135313          	srli	t1,t1,0x1
   103c8:	0082b283          	ld	t0,8(t0)
   103cc:	000e0067          	jr	t3

00000000000103d0 <fprintf@plt>:
   103d0:	0000be17          	auipc	t3,0xb
   103d4:	c40e3e03          	ld	t3,-960(t3) # 1b010 <puts@plt+0xac20>
   103d8:	000e0367          	jalr	t1,t3
   103dc:	00000013          	nop

00000000000103e0 <__libc_start_main@plt>:
   103e0:	0000be17          	auipc	t3,0xb
   103e4:	c38e3e03          	ld	t3,-968(t3) # 1b018 <puts@plt+0xac28>
   103e8:	000e0367          	jalr	t1,t3
   103ec:	00000013          	nop

00000000000103f0 <puts@plt>:
   103f0:	0000be17          	auipc	t3,0xb
   103f4:	c30e3e03          	ld	t3,-976(t3) # 1b020 <puts@plt+0xac30>
   103f8:	000e0367          	jalr	t1,t3
   103fc:	00000013          	nop

Disassembly of section .text:

0000000000010400 <.text>:
   10400:	81010113          	addi	sp,sp,-2032
   10404:	7e113423          	sd	ra,2024(sp)
   10408:	7e813023          	sd	s0,2016(sp)
   1040c:	7c913c23          	sd	s1,2008(sp)
   10410:	7d213823          	sd	s2,2000(sp)
   10414:	7d313423          	sd	s3,1992(sp)
   10418:	7d413023          	sd	s4,1984(sp)
   1041c:	7b513c23          	sd	s5,1976(sp)
   10420:	7b613823          	sd	s6,1968(sp)
   10424:	7b713423          	sd	s7,1960(sp)
   10428:	7b813023          	sd	s8,1952(sp)
   1042c:	79913c23          	sd	s9,1944(sp)
   10430:	79a13823          	sd	s10,1936(sp)
   10434:	79b13423          	sd	s11,1928(sp)
   10438:	4789                	li	a5,2
   1043a:	7155                	addi	sp,sp,-208
   1043c:	00f50463          	beq	a0,a5,10444 <puts@plt+0x54>
   10440:	4530806f          	j	19092 <puts@plt+0x8ca2>
   10444:	6598                	ld	a4,8(a1)
   10446:	6795                	lui	a5,0x5
   10448:	c0778c93          	addi	s9,a5,-1017 # 4c07 <fprintf@plt-0xb7c9>
   1044c:	00075483          	lhu	s1,0(a4)
   10450:	01a75d03          	lhu	s10,26(a4)
   10454:	6895                	lui	a7,0x5
   10456:	0194ccb3          	xor	s9,s1,s9
   1045a:	1cc2                	slli	s9,s9,0x30
   1045c:	030cdc93          	srli	s9,s9,0x30
   10460:	039486bb          	mulw	a3,s1,s9
   10464:	e938829b          	addiw	t0,a7,-365
   10468:	005d02bb          	addw	t0,s10,t0
   1046c:	12c2                	slli	t0,t0,0x30
   1046e:	0302d293          	srli	t0,t0,0x30
   10472:	00675503          	lhu	a0,6(a4)
   10476:	6789                	lui	a5,0x2
   10478:	b0a78793          	addi	a5,a5,-1270 # 1b0a <fprintf@plt-0xe8c6>
   1047c:	00f54433          	xor	s0,a0,a5
   10480:	00875783          	lhu	a5,8(a4)
   10484:	025d0fbb          	mulw	t6,s10,t0
   10488:	03069613          	slli	a2,a3,0x30
   1048c:	9241                	srli	a2,a2,0x30
   1048e:	00cc833b          	addw	t1,s9,a2
   10492:	1342                	slli	t1,t1,0x30
   10494:	75f9                	lui	a1,0xffffe
   10496:	03035313          	srli	t1,t1,0x30
   1049a:	ef558593          	addi	a1,a1,-267 # ffffffffffffdef5 <stderr@@GLIBC_2.25+0xfffffffffffe2eb5>
   1049e:	006646b3          	xor	a3,a2,t1
   104a2:	f93e                	sd	a5,176(sp)
   104a4:	8fad                	xor	a5,a5,a1
   104a6:	03079a93          	slli	s5,a5,0x30
   104aa:	02d607bb          	mulw	a5,a2,a3
   104ae:	00475c03          	lhu	s8,4(a4)
   104b2:	03041e93          	slli	t4,s0,0x30
   104b6:	843a                	mv	s0,a4
   104b8:	00dc873b          	addw	a4,s9,a3
   104bc:	030ede93          	srli	t4,t4,0x30
   104c0:	030f9f13          	slli	t5,t6,0x30
   104c4:	03071093          	slli	ra,a4,0x30
   104c8:	00e45703          	lhu	a4,14(s0)
   104cc:	030f5f13          	srli	t5,t5,0x30
   104d0:	01d50a3b          	addw	s4,a0,t4
   104d4:	030a1993          	slli	s3,s4,0x30
   104d8:	01e2ca33          	xor	s4,t0,t5
   104dc:	0300d093          	srli	ra,ra,0x30
   104e0:	e23a                	sd	a4,256(sp)
   104e2:	0142873b          	addw	a4,t0,s4
   104e6:	01045f83          	lhu	t6,16(s0)
   104ea:	01ed4bb3          	xor	s7,s10,t5
   104ee:	03071d93          	slli	s11,a4,0x30
   104f2:	e106                	sd	ra,128(sp)
   104f4:	001cc733          	xor	a4,s9,ra
   104f8:	80fa                	mv	ra,t5
   104fa:	e932                	sd	a2,144(sp)
   104fc:	9f31                	addw	a4,a4,a2
   104fe:	ea7a                	sd	t5,272(sp)
   10500:	0170863b          	addw	a2,ra,s7
   10504:	7f61                	lui	t5,0xffff8
   10506:	00a45b03          	lhu	s6,10(s0)
   1050a:	01245903          	lhu	s2,18(s0)
   1050e:	f252                	sd	s4,288(sp)
   10510:	17c2                	slli	a5,a5,0x30
   10512:	03061a13          	slli	s4,a2,0x30
   10516:	1742                	slli	a4,a4,0x30
   10518:	1fbf0f1b          	addiw	t5,t5,507
   1051c:	0309d993          	srli	s3,s3,0x30
   10520:	030a5a13          	srli	s4,s4,0x30
   10524:	01ef8f3b          	addw	t5,t6,t5
   10528:	93c1                	srli	a5,a5,0x30
   1052a:	9341                	srli	a4,a4,0x30
   1052c:	00f343b3          	xor	t2,t1,a5
   10530:	0142c633          	xor	a2,t0,s4
   10534:	030ada93          	srli	s5,s5,0x30
   10538:	e0ba                	sd	a4,64(sp)
   1053a:	f0ce                	sd	s3,96(sp)
   1053c:	013ec733          	xor	a4,t4,s3
   10540:	030f1993          	slli	s3,t5,0x30
   10544:	01948f3b          	addw	t5,s1,s9
   10548:	027305bb          	mulw	a1,t1,t2
   1054c:	f4d6                	sd	s5,104(sp)
   1054e:	fdaa                	sd	a0,248(sp)
   10550:	e862                	sd	s8,16(sp)
   10552:	ecda                	sd	s6,88(sp)
   10554:	e66a                	sd	s10,264(sp)
   10556:	01445b03          	lhu	s6,20(s0)
   1055a:	e51e                	sd	t2,136(sp)
   1055c:	f176                	sd	t4,160(sp)
   1055e:	01645383          	lhu	t2,22(s0)
   10562:	e73a                	sd	a4,392(sp)
   10564:	ead2                	sd	s4,336(sp)
   10566:	ed32                	sd	a2,152(sp)
   10568:	d9fa                	sw	t5,240(sp)
   1056a:	e44a                	sd	s2,8(sp)
   1056c:	01c45903          	lhu	s2,28(s0)
   10570:	7e79                	lui	t3,0xffffe
   10572:	11ce0a13          	addi	s4,t3,284 # ffffffffffffe11c <stderr@@GLIBC_2.25+0xfffffffffffe30dc>
   10576:	01494a33          	xor	s4,s2,s4
   1057a:	1a42                	slli	s4,s4,0x30
   1057c:	030a5a13          	srli	s4,s4,0x30
   10580:	0064cf33          	xor	t5,s1,t1
   10584:	0149093b          	addw	s2,s2,s4
   10588:	e8fa                	sd	t5,80(sp)
   1058a:	03091f13          	slli	t5,s2,0x30
   1058e:	030f5f13          	srli	t5,t5,0x30
   10592:	030ddd93          	srli	s11,s11,0x30
   10596:	01bb863b          	addw	a2,s7,s11
   1059a:	fa6e                	sd	s11,304(sp)
   1059c:	03ea0dbb          	mulw	s11,s4,t5
   105a0:	01e45a83          	lhu	s5,30(s0)
   105a4:	6085                	lui	ra,0x1
   105a6:	0309d993          	srli	s3,s3,0x30
   105aa:	b4d08093          	addi	ra,ra,-1203 # b4d <fprintf@plt-0xf883>
   105ae:	001b4eb3          	xor	t4,s6,ra
   105b2:	f8de                	sd	s7,112(sp)
   105b4:	8bd6                	mv	s7,s5
   105b6:	03061a93          	slli	s5,a2,0x30
   105ba:	030ada93          	srli	s5,s5,0x30
   105be:	033f80bb          	mulw	ra,t6,s3
   105c2:	fc56                	sd	s5,56(sp)
   105c4:	15b12423          	sw	s11,328(sp)
   105c8:	00245a83          	lhu	s5,2(s0)
   105cc:	7de1                	lui	s11,0xffff8
   105ce:	8cee                	mv	s9,s11
   105d0:	1ec2                	slli	t4,t4,0x30
   105d2:	0e9d8d93          	addi	s11,s11,233 # ffffffffffff80e9 <stderr@@GLIBC_2.25+0xfffffffffffdd0a9>
   105d6:	030ede93          	srli	t4,t4,0x30
   105da:	01b7c7b3          	xor	a5,a5,s11
   105de:	01ea4db3          	xor	s11,s4,t5
   105e2:	895a                	mv	s2,s6
   105e4:	8d6e                	mv	s10,s11
   105e6:	f856                	sd	s5,48(sp)
   105e8:	01db0abb          	addw	s5,s6,t4
   105ec:	03bf0b3b          	mulw	s6,t5,s11
   105f0:	013fcdb3          	xor	s11,t6,s3
   105f4:	e1ee                	sd	s11,192(sp)
   105f6:	00c45d83          	lhu	s11,12(s0)
   105fa:	1ac2                	slli	s5,s5,0x30
   105fc:	030ada93          	srli	s5,s5,0x30
   10600:	e2fa                	sd	t5,320(sp)
   10602:	3a3c8c93          	addi	s9,s9,931
   10606:	8f6e                	mv	t5,s11
   10608:	01845603          	lhu	a2,24(s0)
   1060c:	d006                	sw	ra,32(sp)
   1060e:	e3fe                	sd	t6,448(sp)
   10610:	80ca                	mv	ra,s2
   10612:	01594fb3          	xor	t6,s2,s5
   10616:	019f4933          	xor	s2,t5,s9
   1061a:	1942                	slli	s2,s2,0x30
   1061c:	03095913          	srli	s2,s2,0x30
   10620:	15688d9b          	addiw	s11,a7,342
   10624:	01b60c3b          	addw	s8,a2,s11
   10628:	3a813c23          	sd	s0,952(sp)
   1062c:	8432                	mv	s0,a2
   1062e:	012f063b          	addw	a2,t5,s2
   10632:	edce                	sd	s3,216(sp)
   10634:	e49e                	sd	t2,72(sp)
   10636:	03061993          	slli	s3,a2,0x30
   1063a:	e343839b          	addiw	t2,t2,-460
   1063e:	0309d993          	srli	s3,s3,0x30
   10642:	46712823          	sw	t2,1136(sp)
   10646:	1b42                	slli	s6,s6,0x30
   10648:	73e2                	ld	t2,56(sp)
   1064a:	030b5b13          	srli	s6,s6,0x30
   1064e:	ec4e                	sd	s3,24(sp)
   10650:	e47bc993          	xori	s3,s7,-441
   10654:	f506                	sd	ra,168(sp)
   10656:	021f8fbb          	mulw	t6,t6,ra
   1065a:	f2de                	sd	s7,352(sp)
   1065c:	016d40b3          	xor	ra,s10,s6
   10660:	03099b93          	slli	s7,s3,0x30
   10664:	030bdb93          	srli	s7,s7,0x30
   10668:	fcea                	sd	s10,120(sp)
   1066a:	ee86                	sd	ra,344(sp)
   1066c:	0072cd33          	xor	s10,t0,t2
   10670:	40ea                	lw	ra,152(sp)
   10672:	73e5                	lui	t2,0xffff9
   10674:	3d713c23          	sd	s7,984(sp)
   10678:	ab238b93          	addi	s7,t2,-1358 # ffffffffffff8ab2 <stderr@@GLIBC_2.25+0xfffffffffffdda72>
   1067c:	73f5                	lui	t2,0xffffd
   1067e:	3a43861b          	addiw	a2,t2,932
   10682:	021600bb          	mulw	ra,a2,ra
   10686:	1fc2                	slli	t6,t6,0x30
   10688:	030fdf93          	srli	t6,t6,0x30
   1068c:	89a2                	mv	s3,s0
   1068e:	ee3e                	sd	a5,280(sp)
   10690:	fd7a                	sd	t5,184(sp)
   10692:	f6ea                	sd	s10,360(sp)
   10694:	1c42                	slli	s8,s8,0x30
   10696:	030c5c13          	srli	s8,s8,0x30
   1069a:	01744433          	xor	s0,s0,s7
   1069e:	58111c23          	sh	ra,1432(sp)
   106a2:	01fec0b3          	xor	ra,t4,t6
   106a6:	fe06                	sd	ra,312(sp)
   106a8:	f64e                	sd	s3,296(sp)
   106aa:	40e2                	lw	ra,24(sp)
   106ac:	0389863b          	mulw	a2,s3,s8
   106b0:	4dc88d1b          	addiw	s10,a7,1244
   106b4:	001909bb          	addw	s3,s2,ra
   106b8:	19c2                	slli	s3,s3,0x30
   106ba:	0309d993          	srli	s3,s3,0x30
   106be:	80ce                	mv	ra,s3
   106c0:	69e2                	ld	s3,24(sp)
   106c2:	42113823          	sd	ra,1072(sp)
   106c6:	77e9                	lui	a5,0xffffa
   106c8:	0019c0b3          	xor	ra,s3,ra
   106cc:	60113423          	sd	ra,1544(sp)
   106d0:	50e2                	lw	ra,56(sp)
   106d2:	699d                	lui	s3,0x7
   106d4:	9d29899b          	addiw	s3,s3,-1582
   106d8:	013080bb          	addw	ra,ra,s3
   106dc:	79b2                	ld	s3,296(sp)
   106de:	1642                	slli	a2,a2,0x30
   106e0:	9241                	srli	a2,a2,0x30
   106e2:	00c9c9b3          	xor	s3,s3,a2
   106e6:	2f313823          	sd	s3,752(sp)
   106ea:	0134043b          	addw	s0,s0,s3
   106ee:	017649b3          	xor	s3,a2,s7
   106f2:	19c2                	slli	s3,s3,0x30
   106f4:	0309d993          	srli	s3,s3,0x30
   106f8:	0374043b          	mulw	s0,s0,s7
   106fc:	01798bbb          	addw	s7,s3,s7
   10700:	1bc2                	slli	s7,s7,0x30
   10702:	f432                	sd	a2,40(sp)
   10704:	030bdb93          	srli	s7,s7,0x30
   10708:	12812603          	lw	a2,296(sp)
   1070c:	49713023          	sd	s7,1152(sp)
   10710:	18112023          	sw	ra,384(sp)
   10714:	0136063b          	addw	a2,a2,s3
   10718:	1642                	slli	a2,a2,0x30
   1071a:	037d8dbb          	mulw	s11,s11,s7
   1071e:	9241                	srli	a2,a2,0x30
   10720:	00cc4bb3          	xor	s7,s8,a2
   10724:	7c7d                	lui	s8,0xfffff
   10726:	00c980bb          	addw	ra,s3,a2
   1072a:	703c061b          	addiw	a2,s8,1795
   1072e:	1c012c03          	lw	s8,448(sp)
   10732:	6a112023          	sw	ra,1696(sp)
   10736:	608e                	ld	ra,192(sp)
   10738:	00cc063b          	addw	a2,s8,a2
   1073c:	6bb11c23          	sh	s11,1720(sp)
   10740:	03061d93          	slli	s11,a2,0x30
   10744:	030ddd93          	srli	s11,s11,0x30
   10748:	8c6e                	mv	s8,s11
   1074a:	01a98dbb          	addw	s11,s3,s10
   1074e:	4d62                	lw	s10,24(sp)
   10750:	69b12c23          	sw	s11,1688(sp)
   10754:	02015d83          	lhu	s11,32(sp)
   10758:	03a909bb          	mulw	s3,s2,s10
   1075c:	25813423          	sd	s8,584(sp)
   10760:	001dc633          	xor	a2,s11,ra
   10764:	01864d33          	xor	s10,a2,s8
   10768:	01adcc33          	xor	s8,s11,s10
   1076c:	3b813823          	sd	s8,944(sp)
   10770:	00cd8c3b          	addw	s8,s11,a2
   10774:	f1ee                	sd	s11,224(sp)
   10776:	030c1093          	slli	ra,s8,0x30
   1077a:	7dea                	ld	s11,184(sp)
   1077c:	0300d093          	srli	ra,ra,0x30
   10780:	8c6a                	mv	s8,s10
   10782:	19c2                	slli	s3,s3,0x30
   10784:	0309d993          	srli	s3,s3,0x30
   10788:	001c0c3b          	addw	s8,s8,ra
   1078c:	e1ce                	sd	s3,192(sp)
   1078e:	32113423          	sd	ra,808(sp)
   10792:	47812423          	sw	s8,1128(sp)
   10796:	80ce                	mv	ra,s3
   10798:	013dcc33          	xor	s8,s11,s3
   1079c:	79f5                	lui	s3,0xffffd
   1079e:	1c19899b          	addiw	s3,s3,449
   107a2:	f06a                	sd	s10,32(sp)
   107a4:	013089bb          	addw	s3,ra,s3
   107a8:	5d22                	lw	s10,40(sp)
   107aa:	408e                	lw	ra,192(sp)
   107ac:	1442                	slli	s0,s0,0x30
   107ae:	9041                	srli	s0,s0,0x30
   107b0:	028d0d3b          	mulw	s10,s10,s0
   107b4:	001d8dbb          	addw	s11,s11,ra
   107b8:	1dc2                	slli	s11,s11,0x30
   107ba:	030ddd93          	srli	s11,s11,0x30
   107be:	80ee                	mv	ra,s11
   107c0:	6d8e                	ld	s11,192(sp)
   107c2:	19c2                	slli	s3,s3,0x30
   107c4:	0309d993          	srli	s3,s3,0x30
   107c8:	01b94933          	xor	s2,s2,s11
   107cc:	6de2                	ld	s11,24(sp)
   107ce:	e5ca                	sd	s2,200(sp)
   107d0:	7775                	lui	a4,0xffffd
   107d2:	013dc933          	xor	s2,s11,s3
   107d6:	61213023          	sd	s2,1536(sp)
   107da:	030d1d93          	slli	s11,s10,0x30
   107de:	001c4933          	xor	s2,s8,ra
   107e2:	030ddd93          	srli	s11,s11,0x30
   107e6:	01994cb3          	xor	s9,s2,s9
   107ea:	e986                	sd	ra,208(sp)
   107ec:	5f913c23          	sd	s9,1528(sp)
   107f0:	01b44cb3          	xor	s9,s0,s11
   107f4:	47913c23          	sd	s9,1144(sp)
   107f8:	7ca2                	ld	s9,40(sp)
   107fa:	6085                	lui	ra,0x1
   107fc:	7d02                	ld	s10,32(sp)
   107fe:	01bcc433          	xor	s0,s9,s11
   10802:	01b4043b          	addw	s0,s0,s11
   10806:	b4d0809b          	addiw	ra,ra,-1203
   1080a:	021e8ebb          	mulw	t4,t4,ra
   1080e:	03041093          	slli	ra,s0,0x30
   10812:	0300d093          	srli	ra,ra,0x30
   10816:	30113023          	sd	ra,768(sp)
   1081a:	017dc0b3          	xor	ra,s11,s7
   1081e:	01a60bbb          	addw	s7,a2,s10
   10822:	24813603          	ld	a2,584(sp)
   10826:	446e                	lw	s0,216(sp)
   10828:	2e113c23          	sd	ra,760(sp)
   1082c:	01764bb3          	xor	s7,a2,s7
   10830:	028b8bbb          	mulw	s7,s7,s0
   10834:	03059413          	slli	s0,a1,0x30
   10838:	458a                	lw	a1,128(sp)
   1083a:	030e9613          	slli	a2,t4,0x30
   1083e:	9241                	srli	a2,a2,0x30
   10840:	01564933          	xor	s2,a2,s5
   10844:	41b13823          	sd	s11,1040(sp)
   10848:	9041                	srli	s0,s0,0x30
   1084a:	650d                	lui	a0,0x3
   1084c:	76e9                	lui	a3,0xffffa
   1084e:	02b3033b          	mulw	t1,t1,a1
   10852:	1bc2                	slli	s7,s7,0x30
   10854:	030bdb93          	srli	s7,s7,0x30
   10858:	017d45b3          	xor	a1,s10,s7
   1085c:	dc0bce93          	xori	t4,s7,-576
   10860:	4ab13023          	sd	a1,1184(sp)
   10864:	55ce                	lw	a1,240(sp)
   10866:	030e9093          	slli	ra,t4,0x30
   1086a:	0300d093          	srli	ra,ra,0x30
   1086e:	f586                	sd	ra,232(sp)
   10870:	1342                	slli	t1,t1,0x30
   10872:	03035313          	srli	t1,t1,0x30
   10876:	6086                	ld	ra,64(sp)
   10878:	00658cbb          	addw	s9,a1,t1
   1087c:	11812583          	lw	a1,280(sp)
   10880:	0060ceb3          	xor	t4,ra,t1
   10884:	0356063b          	mulw	a2,a2,s5
   10888:	0065833b          	addw	t1,a1,t1
   1088c:	45aa                	lw	a1,136(sp)
   1088e:	030c9d93          	slli	s11,s9,0x30
   10892:	6cc6                	ld	s9,80(sp)
   10894:	00b3033b          	addw	t1,t1,a1
   10898:	0013033b          	addw	t1,t1,ra
   1089c:	030ddd93          	srli	s11,s11,0x30
   108a0:	1342                	slli	t1,t1,0x30
   108a2:	01bccd33          	xor	s10,s9,s11
   108a6:	03035313          	srli	t1,t1,0x30
   108aa:	faee                	sd	s11,368(sp)
   108ac:	3a600d93          	li	s11,934
   108b0:	03b30dbb          	mulw	s11,t1,s11
   108b4:	1642                	slli	a2,a2,0x30
   108b6:	9241                	srli	a2,a2,0x30
   108b8:	012640b3          	xor	ra,a2,s2
   108bc:	75e9                	lui	a1,0xffffa
   108be:	008ecbb3          	xor	s7,t4,s0
   108c2:	e086                	sd	ra,64(sp)
   108c4:	006eceb3          	xor	t4,t4,t1
   108c8:	70aa                	ld	ra,168(sp)
   108ca:	80e5859b          	addiw	a1,a1,-2034
   108ce:	01d58ebb          	addw	t4,a1,t4
   108d2:	6585                	lui	a1,0x1
   108d4:	b4d58593          	addi	a1,a1,-1203 # b4d <fprintf@plt-0xf883>
   108d8:	00c0c0b3          	xor	ra,ra,a2
   108dc:	029b8bbb          	mulw	s7,s7,s1
   108e0:	8e2d                	xor	a2,a2,a1
   108e2:	45c6                	lw	a1,80(sp)
   108e4:	1dc2                	slli	s11,s11,0x30
   108e6:	030ddd93          	srli	s11,s11,0x30
   108ea:	01b585bb          	addw	a1,a1,s11
   108ee:	0eb11823          	sh	a1,240(sp)
   108f2:	14012583          	lw	a1,320(sp)
   108f6:	01a34333          	xor	t1,t1,s10
   108fa:	20613c23          	sd	t1,536(sp)
   108fe:	c237831b          	addiw	t1,a5,-989
   10902:	00b3033b          	addw	t1,t1,a1
   10906:	006b4333          	xor	t1,s6,t1
   1090a:	1342                	slli	t1,t1,0x30
   1090c:	01744bb3          	xor	s7,s0,s7
   10910:	03035313          	srli	t1,t1,0x30
   10914:	e89a                	sd	t1,80(sp)
   10916:	030b9313          	slli	t1,s7,0x30
   1091a:	03035313          	srli	t1,t1,0x30
   1091e:	026e8ebb          	mulw	t4,t4,t1
   10922:	e51a                	sd	t1,136(sp)
   10924:	7be6                	ld	s7,120(sp)
   10926:	14815303          	lhu	t1,328(sp)
   1092a:	15812583          	lw	a1,344(sp)
   1092e:	01a4ccb3          	xor	s9,s1,s10
   10932:	01734bb3          	xor	s7,t1,s7
   10936:	017a4a33          	xor	s4,s4,s7
   1093a:	f552                	sd	s4,168(sp)
   1093c:	00658a3b          	addw	s4,a1,t1
   10940:	01634333          	xor	t1,t1,s6
   10944:	6b46                	ld	s6,80(sp)
   10946:	0284843b          	mulw	s0,s1,s0
   1094a:	1a42                	slli	s4,s4,0x30
   1094c:	85da                	mv	a1,s6
   1094e:	030a5a13          	srli	s4,s4,0x30
   10952:	015080bb          	addw	ra,ra,s5
   10956:	1642                	slli	a2,a2,0x30
   10958:	9241                	srli	a2,a2,0x30
   1095a:	681d                	lui	a6,0x7
   1095c:	6f11                	lui	t5,0x4
   1095e:	173f0f13          	addi	t5,t5,371 # 4173 <fprintf@plt-0xc25d>
   10962:	0363033b          	mulw	t1,t1,s6
   10966:	5b2a                	lw	s6,168(sp)
   10968:	1442                	slli	s0,s0,0x30
   1096a:	9041                	srli	s0,s0,0x30
   1096c:	016585bb          	addw	a1,a1,s6
   10970:	52b11c23          	sh	a1,1336(sp)
   10974:	030e9593          	slli	a1,t4,0x30
   10978:	91c1                	srli	a1,a1,0x30
   1097a:	6e96                	ld	t4,320(sp)
   1097c:	eeae                	sd	a1,344(sp)
   1097e:	03031593          	slli	a1,t1,0x30
   10982:	6b66                	ld	s6,88(sp)
   10984:	91c1                	srli	a1,a1,0x30
   10986:	00ba4333          	xor	t1,s4,a1
   1098a:	017eceb3          	xor	t4,t4,s7
   1098e:	028c8cbb          	mulw	s9,s9,s0
   10992:	53d13423          	sd	t4,1320(sp)
   10996:	e69a                	sd	t1,328(sp)
   10998:	6ea1                	lui	t4,0x8
   1099a:	8d970313          	addi	t1,a4,-1831 # ffffffffffffc8d9 <stderr@@GLIBC_2.25+0xfffffffffffe1899>
   1099e:	006b4333          	xor	t1,s6,t1
   109a2:	a6ce8e9b          	addiw	t4,t4,-1428
   109a6:	4fd12c23          	sw	t4,1272(sp)
   109aa:	03031e93          	slli	t4,t1,0x30
   109ae:	030ede93          	srli	t4,t4,0x30
   109b2:	01db033b          	addw	t1,s6,t4
   109b6:	1342                	slli	t1,t1,0x30
   109b8:	ee76                	sd	t4,280(sp)
   109ba:	03035313          	srli	t1,t1,0x30
   109be:	8eda                	mv	t4,s6
   109c0:	8b1a                	mv	s6,t1
   109c2:	006e833b          	addw	t1,t4,t1
   109c6:	006b4333          	xor	t1,s6,t1
   109ca:	31713423          	sd	s7,776(sp)
   109ce:	34b13823          	sd	a1,848(sp)
   109d2:	7ba2                	ld	s7,40(sp)
   109d4:	0f015583          	lhu	a1,240(sp)
   109d8:	feda                	sd	s6,376(sp)
   109da:	2f012b03          	lw	s6,752(sp)
   109de:	1cc2                	slli	s9,s9,0x30
   109e0:	030cdc93          	srli	s9,s9,0x30
   109e4:	008d4d33          	xor	s10,s10,s0
   109e8:	036b843b          	mulw	s0,s7,s6
   109ec:	00bccb33          	xor	s6,s9,a1
   109f0:	6586                	ld	a1,64(sp)
   109f2:	2c613823          	sd	t1,720(sp)
   109f6:	e7da                	sd	s6,456(sp)
   109f8:	6b2a                	ld	s6,136(sp)
   109fa:	f9e6                	sd	s9,240(sp)
   109fc:	3a470e93          	addi	t4,a4,932
   10a00:	019b4b33          	xor	s6,s6,s9
   10a04:	016d0d3b          	addw	s10,s10,s6
   10a08:	02b9093b          	mulw	s2,s2,a1
   10a0c:	1442                	slli	s0,s0,0x30
   10a0e:	9041                	srli	s0,s0,0x30
   10a10:	008bc333          	xor	t1,s7,s0
   10a14:	6a613423          	sd	t1,1704(sp)
   10a18:	46813023          	sd	s0,1120(sp)
   10a1c:	3fa12c23          	sw	s10,1016(sp)
   10a20:	6d32                	ld	s10,264(sp)
   10a22:	7bc6                	ld	s7,112(sp)
   10a24:	4528889b          	addiw	a7,a7,1106
   10a28:	1942                	slli	s2,s2,0x30
   10a2a:	03095913          	srli	s2,s2,0x30
   10a2e:	033c09bb          	mulw	s3,s8,s3
   10a32:	001940b3          	xor	ra,s2,ra
   10a36:	03009c13          	slli	s8,ra,0x30
   10a3a:	030c5c13          	srli	s8,s8,0x30
   10a3e:	35813423          	sd	s8,840(sp)
   10a42:	018acc33          	xor	s8,s5,s8
   10a46:	018f8abb          	addw	s5,t6,s8
   10a4a:	65512c23          	sw	s5,1624(sp)
   10a4e:	6a85                	lui	s5,0x1
   10a50:	b4da8a9b          	addiw	s5,s5,-1203
   10a54:	0159093b          	addw	s2,s2,s5
   10a58:	03091313          	slli	t1,s2,0x30
   10a5c:	03035313          	srli	t1,t1,0x30
   10a60:	026f843b          	mulw	s0,t6,t1
   10a64:	03099f93          	slli	t6,s3,0x30
   10a68:	030fdf93          	srli	t6,t6,0x30
   10a6c:	8afe                	mv	s5,t6
   10a6e:	43f13c23          	sd	t6,1080(sp)
   10a72:	6fce                	ld	t6,208(sp)
   10a74:	44613023          	sd	t1,1088(sp)
   10a78:	7312                	ld	t1,288(sp)
   10a7a:	01fac933          	xor	s2,s5,t6
   10a7e:	6fae                	ld	t6,200(sp)
   10a80:	006d40b3          	xor	ra,s10,t1
   10a84:	1442                	slli	s0,s0,0x30
   10a86:	012fc9b3          	xor	s3,t6,s2
   10a8a:	001b8fbb          	addw	t6,s7,ra
   10a8e:	030f9313          	slli	t1,t6,0x30
   10a92:	11012f83          	lw	t6,272(sp)
   10a96:	03035313          	srli	t1,t1,0x30
   10a9a:	5d313423          	sd	s3,1480(sp)
   10a9e:	026f8fbb          	mulw	t6,t6,t1
   10aa2:	9041                	srli	s0,s0,0x30
   10aa4:	36613c23          	sd	t1,888(sp)
   10aa8:	008c09bb          	addw	s3,s8,s0
   10aac:	7372                	ld	t1,312(sp)
   10aae:	03099a93          	slli	s5,s3,0x30
   10ab2:	6c92                	ld	s9,256(sp)
   10ab4:	030ada93          	srli	s5,s5,0x30
   10ab8:	006ac9b3          	xor	s3,s5,t1
   10abc:	8c31                	xor	s0,s0,a2
   10abe:	67313423          	sd	s3,1640(sp)
   10ac2:	008ac9b3          	xor	s3,s5,s0
   10ac6:	a675041b          	addiw	s0,a0,-1433
   10aca:	7b62                	ld	s6,56(sp)
   10acc:	028c843b          	mulw	s0,s9,s0
   10ad0:	1fc2                	slli	t6,t6,0x30
   10ad2:	030fdf93          	srli	t6,t6,0x30
   10ad6:	41513023          	sd	s5,1024(sp)
   10ada:	016fcab3          	xor	s5,t6,s6
   10ade:	d3450b1b          	addiw	s6,a0,-716
   10ae2:	01658b3b          	addw	s6,a1,s6
   10ae6:	030b1313          	slli	t1,s6,0x30
   10aea:	03035313          	srli	t1,t1,0x30
   10aee:	00664633          	xor	a2,a2,t1
   10af2:	03fb8fbb          	mulw	t6,s7,t6
   10af6:	1442                	slli	s0,s0,0x30
   10af8:	9041                	srli	s0,s0,0x30
   10afa:	54c13023          	sd	a2,1344(sp)
   10afe:	008cc633          	xor	a2,s9,s0
   10b02:	008c843b          	addw	s0,s9,s0
   10b06:	03041b13          	slli	s6,s0,0x30
   10b0a:	3e613023          	sd	t1,992(sp)
   10b0e:	030b5b13          	srli	s6,s6,0x30
   10b12:	6311                	lui	t1,0x4
   10b14:	1fc2                	slli	t6,t6,0x30
   10b16:	030fdf93          	srli	t6,t6,0x30
   10b1a:	8bda                	mv	s7,s6
   10b1c:	95330593          	addi	a1,t1,-1709 # 3953 <fprintf@plt-0xca7d>
   10b20:	837e                	mv	t1,t6
   10b22:	01f28fbb          	addw	t6,t0,t6
   10b26:	01664b33          	xor	s6,a2,s6
   10b2a:	35813c23          	sd	s8,856(sp)
   10b2e:	00bbcc33          	xor	s8,s7,a1
   10b32:	030f9593          	slli	a1,t6,0x30
   10b36:	18012f83          	lw	t6,384(sp)
   10b3a:	ffb2                	sd	a2,504(sp)
   10b3c:	0166063b          	addw	a2,a2,s6
   10b40:	91c1                	srli	a1,a1,0x30
   10b42:	1642                	slli	a2,a2,0x30
   10b44:	00bf8fbb          	addw	t6,t6,a1
   10b48:	9241                	srli	a2,a2,0x30
   10b4a:	00cb843b          	addw	s0,s7,a2
   10b4e:	27713823          	sd	s7,624(sp)
   10b52:	01dfceb3          	xor	t4,t6,t4
   10b56:	037b8bbb          	mulw	s7,s7,s7
   10b5a:	1ec2                	slli	t4,t4,0x30
   10b5c:	030ede93          	srli	t4,t4,0x30
   10b60:	31d13823          	sd	t4,784(sp)
   10b64:	16812e83          	lw	t4,360(sp)
   10b68:	030c1f93          	slli	t6,s8,0x30
   10b6c:	1442                	slli	s0,s0,0x30
   10b6e:	006e8ebb          	addw	t4,t4,t1
   10b72:	030e9c13          	slli	s8,t4,0x30
   10b76:	6e95                	lui	t4,0x5
   10b78:	030c5c13          	srli	s8,s8,0x30
   10b7c:	d3ae8e9b          	addiw	t4,t4,-710
   10b80:	018e8ebb          	addw	t4,t4,s8
   10b84:	69d11023          	sh	t4,1664(sp)
   10b88:	030b9e93          	slli	t4,s7,0x30
   10b8c:	030ede93          	srli	t4,t4,0x30
   10b90:	036c8bbb          	mulw	s7,s9,s6
   10b94:	9041                	srli	s0,s0,0x30
   10b96:	ff2e                	sd	a1,440(sp)
   10b98:	75f5                	lui	a1,0xffffd
   10b9a:	ef1a                	sd	t1,408(sp)
   10b9c:	e5458593          	addi	a1,a1,-428 # ffffffffffffce54 <stderr@@GLIBC_2.25+0xfffffffffffe1e14>
   10ba0:	008ec333          	xor	t1,t4,s0
   10ba4:	00bb4b33          	xor	s6,s6,a1
   10ba8:	0066063b          	addw	a2,a2,t1
   10bac:	22613c23          	sd	t1,568(sp)
   10bb0:	1642                	slli	a2,a2,0x30
   10bb2:	030b1313          	slli	t1,s6,0x30
   10bb6:	9241                	srli	a2,a2,0x30
   10bb8:	03035313          	srli	t1,t1,0x30
   10bbc:	00c34b33          	xor	s6,t1,a2
   10bc0:	030fdf93          	srli	t6,t6,0x30
   10bc4:	75e9                	lui	a1,0xffffa
   10bc6:	22613823          	sd	t1,560(sp)
   10bca:	6725859b          	addiw	a1,a1,1650
   10bce:	016fc333          	xor	t1,t6,s6
   10bd2:	006585bb          	addw	a1,a1,t1
   10bd6:	5cb11023          	sh	a1,1472(sp)
   10bda:	75f5                	lui	a1,0xffffd
   10bdc:	22613023          	sd	t1,544(sp)
   10be0:	e545831b          	addiw	t1,a1,-428
   10be4:	006e833b          	addw	t1,t4,t1
   10be8:	030b9e93          	slli	t4,s7,0x30
   10bec:	23812b83          	lw	s7,568(sp)
   10bf0:	030ede93          	srli	t4,t4,0x30
   10bf4:	fe62                	sd	s8,312(sp)
   10bf6:	01fccc33          	xor	s8,s9,t6
   10bfa:	006c45b3          	xor	a1,s8,t1
   10bfe:	037e833b          	mulw	t1,t4,s7
   10c02:	6c4e                	ld	s8,208(sp)
   10c04:	21d13023          	sd	t4,512(sp)
   10c08:	ebf68e93          	addi	t4,a3,-321 # ffffffffffff9ebf <stderr@@GLIBC_2.25+0xfffffffffffdee7f>
   10c0c:	5eb13423          	sd	a1,1512(sp)
   10c10:	01dc45b3          	xor	a1,s8,t4
   10c14:	7c62                	ld	s8,56(sp)
   10c16:	60b13823          	sd	a1,1552(sp)
   10c1a:	15012583          	lw	a1,336(sp)
   10c1e:	0180c0b3          	xor	ra,ra,s8
   10c22:	1342                	slli	t1,t1,0x30
   10c24:	02b080bb          	mulw	ra,ra,a1
   10c28:	1f812583          	lw	a1,504(sp)
   10c2c:	03035313          	srli	t1,t1,0x30
   10c30:	22012b83          	lw	s7,544(sp)
   10c34:	00658ebb          	addw	t4,a1,t1
   10c38:	1ec2                	slli	t4,t4,0x30
   10c3a:	030ede93          	srli	t4,t4,0x30
   10c3e:	01d645b3          	xor	a1,a2,t4
   10c42:	0175863b          	addw	a2,a1,s7
   10c46:	1642                	slli	a2,a2,0x30
   10c48:	59313423          	sd	s3,1416(sp)
   10c4c:	3cb13823          	sd	a1,976(sp)
   10c50:	9241                	srli	a2,a2,0x30
   10c52:	24c13023          	sd	a2,576(sp)
   10c56:	006cc633          	xor	a2,s9,t1
   10c5a:	23012c83          	lw	s9,560(sp)
   10c5e:	01f34fb3          	xor	t6,t1,t6
   10c62:	01d6063b          	addw	a2,a2,t4
   10c66:	039f8fbb          	mulw	t6,t6,s9
   10c6a:	03009313          	slli	t1,ra,0x30
   10c6e:	03035313          	srli	t1,t1,0x30
   10c72:	0152c9b3          	xor	s3,t0,s5
   10c76:	0062c2b3          	xor	t0,t0,t1
   10c7a:	50513823          	sd	t0,1296(sp)
   10c7e:	62fa                	ld	t0,408(sp)
   10c80:	809a                	mv	ra,t1
   10c82:	d2668313          	addi	t1,a3,-730
   10c86:	27d13c23          	sd	t4,632(sp)
   10c8a:	63f12423          	sw	t6,1576(sp)
   10c8e:	00cb4fb3          	xor	t6,s6,a2
   10c92:	5df13c23          	sd	t6,1496(sp)
   10c96:	7fc6                	ld	t6,112(sp)
   10c98:	7b79                	lui	s6,0xffffe
   10c9a:	73ed                	lui	t2,0xffffb
   10c9c:	006fc633          	xor	a2,t6,t1
   10ca0:	00c2c633          	xor	a2,t0,a2
   10ca4:	1642                	slli	a2,a2,0x30
   10ca6:	9241                	srli	a2,a2,0x30
   10ca8:	02160ebb          	mulw	t4,a2,ra
   10cac:	00cac2b3          	xor	t0,s5,a2
   10cb0:	6c513023          	sd	t0,1728(sp)
   10cb4:	013642b3          	xor	t0,a2,s3
   10cb8:	32513823          	sd	t0,816(sp)
   10cbc:	72aa                	ld	t0,168(sp)
   10cbe:	c2368613          	addi	a2,a3,-989
   10cc2:	8f86                	mv	t6,ra
   10cc4:	00c2c633          	xor	a2,t0,a2
   10cc8:	03061093          	slli	ra,a2,0x30
   10ccc:	030e9c93          	slli	s9,t4,0x30
   10cd0:	030cdc93          	srli	s9,s9,0x30
   10cd4:	0199c9b3          	xor	s3,s3,s9
   10cd8:	8ace                	mv	s5,s3
   10cda:	45313423          	sd	s3,1096(sp)
   10cde:	6995                	lui	s3,0x5
   10ce0:	d3a9861b          	addiw	a2,s3,-710
   10ce4:	00ca863b          	addw	a2,s5,a2
   10ce8:	03061993          	slli	s3,a2,0x30
   10cec:	664a                	ld	a2,144(sp)
   10cee:	5ae6                	lw	s5,120(sp)
   10cf0:	0300d093          	srli	ra,ra,0x30
   10cf4:	8e25                	xor	a2,a2,s1
   10cf6:	0309d993          	srli	s3,s3,0x30
   10cfa:	021a8ebb          	mulw	t4,s5,ra
   10cfe:	21f13823          	sd	t6,528(sp)
   10d02:	013f8abb          	addw	s5,t6,s3
   10d06:	f6b2                	sd	a2,360(sp)
   10d08:	8fb2                	mv	t6,a2
   10d0a:	7661                	lui	a2,0xffff8
   10d0c:	0e960613          	addi	a2,a2,233 # ffffffffffff80e9 <stderr@@GLIBC_2.25+0xfffffffffffdd0a9>
   10d10:	00cfc633          	xor	a2,t6,a2
   10d14:	9cb1                	addw	s1,s1,a2
   10d16:	6646                	ld	a2,80(sp)
   10d18:	03b484bb          	mulw	s1,s1,s11
   10d1c:	49511c23          	sh	s5,1176(sp)
   10d20:	00164ab3          	xor	s5,a2,ra
   10d24:	6636                	ld	a2,328(sp)
   10d26:	39913823          	sd	s9,912(sp)
   10d2a:	2b313823          	sd	s3,688(sp)
   10d2e:	01564633          	xor	a2,a2,s5
   10d32:	28c13023          	sd	a2,640(sp)
   10d36:	3d513023          	sd	s5,960(sp)
   10d3a:	36113023          	sd	ra,864(sp)
   10d3e:	28911823          	sh	s1,656(sp)
   10d42:	030e9493          	slli	s1,t4,0x30
   10d46:	90c1                	srli	s1,s1,0x30
   10d48:	36913423          	sd	s1,872(sp)
   10d4c:	009a44b3          	xor	s1,s4,s1
   10d50:	56913023          	sd	s1,1376(sp)
   10d54:	74e5                	lui	s1,0xffff9
   10d56:	001a4a33          	xor	s4,s4,ra
   10d5a:	e7048493          	addi	s1,s1,-400 # ffffffffffff8e70 <stderr@@GLIBC_2.25+0xfffffffffffdde30>
   10d5e:	009a4a33          	xor	s4,s4,s1
   10d62:	57413823          	sd	s4,1392(sp)
   10d66:	4a2e                	lw	s4,200(sp)
   10d68:	6ea6                	ld	t4,72(sp)
   10d6a:	974b029b          	addiw	t0,s6,-1676
   10d6e:	032a093b          	mulw	s2,s4,s2
   10d72:	7a65                	lui	s4,0xffff9
   10d74:	4e6a061b          	addiw	a2,s4,1254
   10d78:	00ce863b          	addw	a2,t4,a2
   10d7c:	03061493          	slli	s1,a2,0x30
   10d80:	90c1                	srli	s1,s1,0x30
   10d82:	009e863b          	addw	a2,t4,s1
   10d86:	03061a13          	slli	s4,a2,0x30
   10d8a:	030a5a13          	srli	s4,s4,0x30
   10d8e:	35413023          	sd	s4,832(sp)
   10d92:	1942                	slli	s2,s2,0x30
   10d94:	0144ca33          	xor	s4,s1,s4
   10d98:	03095913          	srli	s2,s2,0x30
   10d9c:	ea52                	sd	s4,272(sp)
   10d9e:	23213423          	sd	s2,552(sp)
   10da2:	60e6                	ld	ra,88(sp)
   10da4:	7a7d                	lui	s4,0xfffff
   10da6:	5b4a0913          	addi	s2,s4,1460 # fffffffffffff5b4 <stderr@@GLIBC_2.25+0xfffffffffffe4574>
   10daa:	0120c9b3          	xor	s3,ra,s2
   10dae:	03099d93          	slli	s11,s3,0x30
   10db2:	6922                	ld	s2,8(sp)
   10db4:	030ddd93          	srli	s11,s11,0x30
   10db8:	03b08bbb          	mulw	s7,ra,s11
   10dbc:	4d8a0613          	addi	a2,s4,1240
   10dc0:	00c94633          	xor	a2,s2,a2
   10dc4:	009ecfb3          	xor	t6,t4,s1
   10dc8:	0126063b          	addw	a2,a2,s2
   10dcc:	8afe                	mv	s5,t6
   10dce:	03061593          	slli	a1,a2,0x30
   10dd2:	23fa0613          	addi	a2,s4,575
   10dd6:	7a16                	ld	s4,352(sp)
   10dd8:	91c1                	srli	a1,a1,0x30
   10dda:	03fe8fbb          	mulw	t6,t4,t6
   10dde:	00ca4633          	xor	a2,s4,a2
   10de2:	1642                	slli	a2,a2,0x30
   10de4:	9241                	srli	a2,a2,0x30
   10de6:	00b94933          	xor	s2,s2,a1
   10dea:	e34a                	sd	s2,384(sp)
   10dec:	1bc2                	slli	s7,s7,0x30
   10dee:	7969                	lui	s2,0xffffa
   10df0:	030bdb93          	srli	s7,s7,0x30
   10df4:	eb690913          	addi	s2,s2,-330 # ffffffffffff9eb6 <stderr@@GLIBC_2.25+0xfffffffffffdee76>
   10df8:	02ca0ebb          	mulw	t4,s4,a2
   10dfc:	012bc933          	xor	s2,s7,s2
   10e00:	33213023          	sd	s2,800(sp)
   10e04:	030f9913          	slli	s2,t6,0x30
   10e08:	00ca0fbb          	addw	t6,s4,a2
   10e0c:	03095913          	srli	s2,s2,0x30
   10e10:	1fc2                	slli	t6,t6,0x30
   10e12:	030fdf93          	srli	t6,t6,0x30
   10e16:	e226                	sd	s1,256(sp)
   10e18:	0124c4b3          	xor	s1,s1,s2
   10e1c:	48913823          	sd	s1,1168(sp)
   10e20:	01f604bb          	addw	s1,a2,t6
   10e24:	6e911c23          	sh	s1,1784(sp)
   10e28:	012ac4b3          	xor	s1,s5,s2
   10e2c:	56913423          	sd	s1,1384(sp)
   10e30:	74fd                	lui	s1,0xfffff
   10e32:	e656                	sd	s5,264(sp)
   10e34:	1ec2                	slli	t4,t4,0x30
   10e36:	5b448a9b          	addiw	s5,s1,1460
   10e3a:	035080bb          	mulw	ra,ra,s5
   10e3e:	030ede93          	srli	t4,t4,0x30
   10e42:	8ad2                	mv	s5,s4
   10e44:	8a76                	mv	s4,t4
   10e46:	01da8ebb          	addw	t4,s5,t4
   10e4a:	1ec2                	slli	t4,t4,0x30
   10e4c:	030ede93          	srli	t4,t4,0x30
   10e50:	01d649b3          	xor	s3,a2,t4
   10e54:	ead2                	sd	s4,336(sp)
   10e56:	01464a33          	xor	s4,a2,s4
   10e5a:	e479861b          	addiw	a2,s3,-441
   10e5e:	00ca4633          	xor	a2,s4,a2
   10e62:	2b213c23          	sd	s2,696(sp)
   10e66:	03061913          	slli	s2,a2,0x30
   10e6a:	20012603          	lw	a2,512(sp)
   10e6e:	017080bb          	addw	ra,ra,s7
   10e72:	10c2                	slli	ra,ra,0x30
   10e74:	02c4043b          	mulw	s0,s0,a2
   10e78:	0300d093          	srli	ra,ra,0x30
   10e7c:	6c42                	ld	s8,16(sp)
   10e7e:	26b13423          	sd	a1,616(sp)
   10e82:	65f2                	ld	a1,280(sp)
   10e84:	37f13823          	sd	t6,880(sp)
   10e88:	cba80f93          	addi	t6,a6,-838 # 6cba <fprintf@plt-0x9716>
   10e8c:	01fc4fb3          	xor	t6,s8,t6
   10e90:	43413023          	sd	s4,1056(sp)
   10e94:	3f313423          	sd	s3,1000(sp)
   10e98:	5c812823          	sw	s0,1488(sp)
   10e9c:	5b44841b          	addiw	s0,s1,1460
   10ea0:	0080863b          	addw	a2,ra,s0
   10ea4:	13012403          	lw	s0,304(sp)
   10ea8:	00c0c633          	xor	a2,ra,a2
   10eac:	1642                	slli	a2,a2,0x30
   10eae:	0264033b          	mulw	t1,s0,t1
   10eb2:	9241                	srli	a2,a2,0x30
   10eb4:	00c5ca33          	xor	s4,a1,a2
   10eb8:	e952                	sd	s4,144(sp)
   10eba:	030f9a13          	slli	s4,t6,0x30
   10ebe:	030a5a13          	srli	s4,s4,0x30
   10ec2:	014c09bb          	addw	s3,s8,s4
   10ec6:	19c2                	slli	s3,s3,0x30
   10ec8:	0309d993          	srli	s3,s3,0x30
   10ecc:	7aa6                	ld	s5,104(sp)
   10ece:	006d4333          	xor	t1,s10,t1
   10ed2:	013a4d33          	xor	s10,s4,s3
   10ed6:	001bc433          	xor	s0,s7,ra
   10eda:	3dd13423          	sd	t4,968(sp)
   10ede:	3fa13823          	sd	s10,1008(sp)
   10ee2:	00cdceb3          	xor	t4,s11,a2
   10ee6:	4d6a                	lw	s10,152(sp)
   10ee8:	00ce8ebb          	addw	t4,t4,a2
   10eec:	58813823          	sd	s0,1424(sp)
   10ef0:	ef5b041b          	addiw	s0,s6,-267
   10ef4:	030e9493          	slli	s1,t4,0x30
   10ef8:	028a8ebb          	mulw	t4,s5,s0
   10efc:	90c1                	srli	s1,s1,0x30
   10efe:	03095913          	srli	s2,s2,0x30
   10f02:	20913423          	sd	s1,520(sp)
   10f06:	013c44b3          	xor	s1,s8,s3
   10f0a:	39213423          	sd	s2,904(sp)
   10f0e:	fc26                	sd	s1,56(sp)
   10f10:	f8d2                	sd	s4,112(sp)
   10f12:	ebbb0c9b          	addiw	s9,s6,-325
   10f16:	8a5a                	mv	s4,s6
   10f18:	03a30d3b          	mulw	s10,t1,s10
   10f1c:	1ec2                	slli	t4,t4,0x30
   10f1e:	030ede93          	srli	t4,t4,0x30
   10f22:	850b0b1b          	addiw	s6,s6,-1968
   10f26:	ef5a0a1b          	addiw	s4,s4,-267
   10f2a:	82068693          	addi	a3,a3,-2016
   10f2e:	5e480813          	addi	a6,a6,1508
   10f32:	e685051b          	addiw	a0,a0,-408
   10f36:	475e0e13          	addi	t3,t3,1141
   10f3a:	79170713          	addi	a4,a4,1937
   10f3e:	31a12c23          	sw	s10,792(sp)
   10f42:	8d56                	mv	s10,s5
   10f44:	01dd033b          	addw	t1,s10,t4
   10f48:	03031d13          	slli	s10,t1,0x30
   10f4c:	734a                	ld	t1,176(sp)
   10f4e:	790a                	ld	s2,160(sp)
   10f50:	5b612a23          	sw	s6,1460(sp)
   10f54:	01d345b3          	xor	a1,t1,t4
   10f58:	6309                	lui	t1,0x2
   10f5a:	b0a3041b          	addiw	s0,t1,-1270
   10f5e:	02890b3b          	mulw	s6,s2,s0
   10f62:	7fee                	ld	t6,248(sp)
   10f64:	030d5d13          	srli	s10,s10,0x30
   10f68:	f2ea                	sd	s10,352(sp)
   10f6a:	ed76                	sd	t4,152(sp)
   10f6c:	01aecd33          	xor	s10,t4,s10
   10f70:	1b42                	slli	s6,s6,0x30
   10f72:	030b5b13          	srli	s6,s6,0x30
   10f76:	0259833b          	mulw	t1,s3,t0
   10f7a:	008b04bb          	addw	s1,s6,s0
   10f7e:	7406                	ld	s0,96(sp)
   10f80:	14c2                	slli	s1,s1,0x30
   10f82:	90c1                	srli	s1,s1,0x30
   10f84:	008b42b3          	xor	t0,s6,s0
   10f88:	016fcab3          	xor	s5,t6,s6
   10f8c:	7ff1                	lui	t6,0xffffc
   10f8e:	286f8f93          	addi	t6,t6,646 # ffffffffffffc286 <stderr@@GLIBC_2.25+0xfffffffffffe1246>
   10f92:	01f2cfb3          	xor	t6,t0,t6
   10f96:	0284843b          	mulw	s0,s1,s0
   10f9a:	ebfe                	sd	t6,464(sp)
   10f9c:	5fe2                	lw	t6,56(sp)
   10f9e:	1342                	slli	t1,t1,0x30
   10fa0:	03035313          	srli	t1,t1,0x30
   10fa4:	f91a                	sd	t1,176(sp)
   10fa6:	006f833b          	addw	t1,t6,t1
   10faa:	03031f93          	slli	t6,t1,0x30
   10fae:	030fdf93          	srli	t6,t6,0x30
   10fb2:	ecfe                	sd	t6,88(sp)
   10fb4:	1442                	slli	s0,s0,0x30
   10fb6:	9041                	srli	s0,s0,0x30
   10fb8:	01544ab3          	xor	s5,s0,s5
   10fbc:	034e8fbb          	mulw	t6,t4,s4
   10fc0:	0154833b          	addw	t1,s1,s5
   10fc4:	03031e93          	slli	t4,t1,0x30
   10fc8:	00894433          	xor	s0,s2,s0
   10fcc:	030ede93          	srli	t4,t4,0x30
   10fd0:	f276                	sd	t4,288(sp)
   10fd2:	6309                	lui	t1,0x2
   10fd4:	0084ceb3          	xor	t4,s1,s0
   10fd8:	fa76                	sd	t4,304(sp)
   10fda:	b0a30e9b          	addiw	t4,t1,-1270
   10fde:	7306                	ld	t1,96(sp)
   10fe0:	01da8ebb          	addw	t4,s5,t4
   10fe4:	2bd12023          	sw	t4,672(sp)
   10fe8:	7ee1                	lui	t4,0xffff8
   10fea:	01534a33          	xor	s4,t1,s5
   10fee:	6c2e8e9b          	addiw	t4,t4,1730
   10ff2:	01da093b          	addw	s2,s4,t4
   10ff6:	5ec6                	lw	t4,112(sp)
   10ff8:	1fc2                	slli	t6,t6,0x30
   10ffa:	030fdf93          	srli	t6,t6,0x30
   10ffe:	03dc0ebb          	mulw	t4,s8,t4
   11002:	01af8c3b          	addw	s8,t6,s10
   11006:	1c42                	slli	s8,s8,0x30
   11008:	030c5c13          	srli	s8,s8,0x30
   1100c:	7379                	lui	t1,0xffffe
   1100e:	f162                	sd	s8,160(sp)
   11010:	ef530313          	addi	t1,t1,-267 # ffffffffffffdef5 <stderr@@GLIBC_2.25+0xfffffffffffe2eb5>
   11014:	5c26                	lw	s8,104(sp)
   11016:	006fc333          	xor	t1,t6,t1
   1101a:	006d4333          	xor	t1,s10,t1
   1101e:	1942                	slli	s2,s2,0x30
   11020:	0183033b          	addw	t1,t1,s8
   11024:	03095913          	srli	s2,s2,0x30
   11028:	7c7d                	lui	s8,0xfffff
   1102a:	f74a                	sd	s2,424(sp)
   1102c:	bbdc0c13          	addi	s8,s8,-1091 # ffffffffffffebbd <stderr@@GLIBC_2.25+0xfffffffffffe3b7d>
   11030:	4942                	lw	s2,16(sp)
   11032:	018fcc33          	xor	s8,t6,s8
   11036:	1c42                	slli	s8,s8,0x30
   11038:	0339093b          	mulw	s2,s2,s3
   1103c:	030c5c13          	srli	s8,s8,0x30
   11040:	f7e2                	sd	s8,488(sp)
   11042:	7c62                	ld	s8,56(sp)
   11044:	1ec2                	slli	t4,t4,0x30
   11046:	01444a33          	xor	s4,s0,s4
   1104a:	030ede93          	srli	t4,t4,0x30
   1104e:	eb52                	sd	s4,400(sp)
   11050:	01dc4a33          	xor	s4,s8,t4
   11054:	f4d2                	sd	s4,104(sp)
   11056:	7a0a                	ld	s4,160(sp)
   11058:	1342                	slli	t1,t1,0x30
   1105a:	1942                	slli	s2,s2,0x30
   1105c:	0145ca33          	xor	s4,a1,s4
   11060:	014c8a3b          	addw	s4,s9,s4
   11064:	030a1c93          	slli	s9,s4,0x30
   11068:	03035313          	srli	t1,t1,0x30
   1106c:	03095913          	srli	s2,s2,0x30
   11070:	030cdc93          	srli	s9,s9,0x30
   11074:	0129c9b3          	xor	s3,s3,s2
   11078:	2f913023          	sd	s9,736(sp)
   1107c:	006cccb3          	xor	s9,s9,t1
   11080:	4f913423          	sd	s9,1256(sp)
   11084:	29313c23          	sd	s3,664(sp)
   11088:	012c0cbb          	addw	s9,s8,s2
   1108c:	49e6                	lw	s3,88(sp)
   1108e:	1cc2                	slli	s9,s9,0x30
   11090:	025482bb          	mulw	t0,s1,t0
   11094:	030cdc93          	srli	s9,s9,0x30
   11098:	01998c3b          	addw	s8,s3,s9
   1109c:	1c42                	slli	s8,s8,0x30
   1109e:	6985                	lui	s3,0x1
   110a0:	030c5c13          	srli	s8,s8,0x30
   110a4:	2d298993          	addi	s3,s3,722 # 12d2 <fprintf@plt-0xf0fe>
   110a8:	013c49b3          	xor	s3,s8,s3
   110ac:	f34e                	sd	s3,416(sp)
   110ae:	69c2                	ld	s3,16(sp)
   110b0:	12c2                	slli	t0,t0,0x30
   110b2:	0302d293          	srli	t0,t0,0x30
   110b6:	0129c933          	xor	s2,s3,s2
   110ba:	59ca                	lw	s3,176(sp)
   110bc:	7a6e                	ld	s4,248(sp)
   110be:	0354043b          	mulw	s0,s0,s5
   110c2:	0139093b          	addw	s2,s2,s3
   110c6:	005a4a33          	xor	s4,s4,t0
   110ca:	015a0a3b          	addw	s4,s4,s5
   110ce:	021d89bb          	mulw	s3,s11,ra
   110d2:	12012d83          	lw	s11,288(sp)
   110d6:	01ba0a3b          	addw	s4,s4,s11
   110da:	7df1                	lui	s11,0xffffc
   110dc:	2b412423          	sw	s4,680(sp)
   110e0:	286d8a13          	addi	s4,s11,646 # ffffffffffffc286 <stderr@@GLIBC_2.25+0xfffffffffffe1246>
   110e4:	6dda                	ld	s11,400(sp)
   110e6:	0142c2b3          	xor	t0,t0,s4
   110ea:	7a76                	ld	s4,376(sp)
   110ec:	005dc2b3          	xor	t0,s11,t0
   110f0:	12c2                	slli	t0,t0,0x30
   110f2:	0302d293          	srli	t0,t0,0x30
   110f6:	f096                	sd	t0,96(sp)
   110f8:	03091293          	slli	t0,s2,0x30
   110fc:	0302d293          	srli	t0,t0,0x30
   11100:	ee16                	sd	t0,280(sp)
   11102:	19c2                	slli	s3,s3,0x30
   11104:	72f9                	lui	t0,0xffffe
   11106:	0309d993          	srli	s3,s3,0x30
   1110a:	97428293          	addi	t0,t0,-1676 # ffffffffffffd974 <stderr@@GLIBC_2.25+0xfffffffffffe2934>
   1110e:	013a4ab3          	xor	s5,s4,s3
   11112:	005c42b3          	xor	t0,s8,t0
   11116:	8956                	mv	s2,s5
   11118:	03029a93          	slli	s5,t0,0x30
   1111c:	52a6                	lw	t0,104(sp)
   1111e:	030ada93          	srli	s5,s5,0x30
   11122:	efca                	sd	s2,472(sp)
   11124:	01528dbb          	addw	s11,t0,s5
   11128:	030d9293          	slli	t0,s11,0x30
   1112c:	0302d293          	srli	t0,t0,0x30
   11130:	f496                	sd	t0,104(sp)
   11132:	00c902bb          	addw	t0,s2,a2
   11136:	12c2                	slli	t0,t0,0x30
   11138:	7d86                	ld	s11,96(sp)
   1113a:	0302d293          	srli	t0,t0,0x30
   1113e:	24513823          	sd	t0,592(sp)
   11142:	6291                	lui	t0,0x4
   11144:	36128293          	addi	t0,t0,865 # 4361 <fprintf@plt-0xc06f>
   11148:	6922                	ld	s2,8(sp)
   1114a:	005dc2b3          	xor	t0,s11,t0
   1114e:	2c513423          	sd	t0,712(sp)
   11152:	7df1                	lui	s11,0xffffc
   11154:	629d                	lui	t0,0x7
   11156:	7a6d8a1b          	addiw	s4,s11,1958
   1115a:	70128293          	addi	t0,t0,1793 # 7701 <fprintf@plt-0x8ccf>
   1115e:	005c4c33          	xor	s8,s8,t0
   11162:	034902bb          	mulw	t0,s2,s4
   11166:	13012a03          	lw	s4,304(sp)
   1116a:	0144043b          	addw	s0,s0,s4
   1116e:	4a4a                	lw	s4,144(sp)
   11170:	28812423          	sw	s0,648(sp)
   11174:	0130c433          	xor	s0,ra,s3
   11178:	0144043b          	addw	s0,s0,s4
   1117c:	6a05                	lui	s4,0x1
   1117e:	52812023          	sw	s0,1312(sp)
   11182:	80ca0a13          	addi	s4,s4,-2036 # 80c <fprintf@plt-0xfbc4>
   11186:	641d                	lui	s0,0x7
   11188:	82e4041b          	addiw	s0,s0,-2002
   1118c:	9a0a                	add	s4,s4,sp
   1118e:	008a2023          	sw	s0,0(s4)
   11192:	16012403          	lw	s0,352(sp)
   11196:	12c2                	slli	t0,t0,0x30
   11198:	0302d293          	srli	t0,t0,0x30
   1119c:	02b4043b          	mulw	s0,s0,a1
   111a0:	8a4a                	mv	s4,s2
   111a2:	0059093b          	addw	s2,s2,t0
   111a6:	03091593          	slli	a1,s2,0x30
   111aa:	91c1                	srli	a1,a1,0x30
   111ac:	00b2cdb3          	xor	s11,t0,a1
   111b0:	01ba093b          	addw	s2,s4,s11
   111b4:	6a1a                	ld	s4,384(sp)
   111b6:	1942                	slli	s2,s2,0x30
   111b8:	03095913          	srli	s2,s2,0x30
   111bc:	03af8fbb          	mulw	t6,t6,s10
   111c0:	7d16                	ld	s10,352(sp)
   111c2:	01494a33          	xor	s4,s2,s4
   111c6:	27213023          	sd	s2,608(sp)
   111ca:	008d4433          	xor	s0,s10,s0
   111ce:	790a                	ld	s2,160(sp)
   111d0:	03041d13          	slli	s10,s0,0x30
   111d4:	030d5d13          	srli	s10,s10,0x30
   111d8:	fdd2                	sd	s4,248(sp)
   111da:	01a94a33          	xor	s4,s2,s10
   111de:	696a                	ld	s2,152(sp)
   111e0:	2da13c23          	sd	s10,728(sp)
   111e4:	7d79                	lui	s10,0xffffe
   111e6:	01494433          	xor	s0,s2,s4
   111ea:	ebbd0d13          	addi	s10,s10,-325 # ffffffffffffdebb <stderr@@GLIBC_2.25+0xfffffffffffe2e7b>
   111ee:	01a44933          	xor	s2,s0,s10
   111f2:	24b13c23          	sd	a1,600(sp)
   111f6:	03091d13          	slli	s10,s2,0x30
   111fa:	01b285bb          	addw	a1,t0,s11
   111fe:	7971                	lui	s2,0xffffc
   11200:	030d5d13          	srli	s10,s10,0x30
   11204:	4cb12423          	sw	a1,1224(sp)
   11208:	bde9059b          	addiw	a1,s2,-1058
   1120c:	00bd05bb          	addw	a1,s10,a1
   11210:	44b12c23          	sw	a1,1112(sp)
   11214:	6585                	lui	a1,0x1
   11216:	81058593          	addi	a1,a1,-2032 # 810 <fprintf@plt-0xfbc0>
   1121a:	958a                	add	a1,a1,sp
   1121c:	01e5b023          	sd	t5,0(a1)
   11220:	4f66                	lw	t5,88(sp)
   11222:	1fc2                	slli	t6,t6,0x30
   11224:	030fdf93          	srli	t6,t6,0x30
   11228:	03df0ebb          	mulw	t4,t5,t4
   1122c:	6f6a                	ld	t5,152(sp)
   1122e:	75be                	ld	a1,488(sp)
   11230:	78d13423          	sd	a3,1928(sp)
   11234:	01ff4f33          	xor	t5,t5,t6
   11238:	008f043b          	addw	s0,t5,s0
   1123c:	1442                	slli	s0,s0,0x30
   1123e:	9041                	srli	s0,s0,0x30
   11240:	fb22                	sd	s0,432(sp)
   11242:	01fa4433          	xor	s0,s4,t6
   11246:	00834fb3          	xor	t6,t1,s0
   1124a:	1ec2                	slli	t4,t4,0x30
   1124c:	030ede93          	srli	t4,t4,0x30
   11250:	12012683          	lw	a3,288(sp)
   11254:	006f4f33          	xor	t5,t5,t1
   11258:	4df13823          	sd	t6,1232(sp)
   1125c:	7fca                	ld	t6,176(sp)
   1125e:	019eccb3          	xor	s9,t4,s9
   11262:	01e5cf33          	xor	t5,a1,t5
   11266:	021b80bb          	mulw	ra,s7,ra
   1126a:	a6c90b9b          	addiw	s7,s2,-1428
   1126e:	017c833b          	addw	t1,s9,s7
   11272:	f3fa                	sd	t5,480(sp)
   11274:	01af4f33          	xor	t5,t5,s10
   11278:	51e13423          	sd	t5,1288(sp)
   1127c:	01df8f3b          	addw	t5,t6,t4
   11280:	03031e93          	slli	t4,t1,0x30
   11284:	7d112023          	sw	a7,1984(sp)
   11288:	18812883          	lw	a7,392(sp)
   1128c:	02d4833b          	mulw	t1,s1,a3
   11290:	76fd                	lui	a3,0xfffff
   11292:	13f68693          	addi	a3,a3,319 # fffffffffffff13f <stderr@@GLIBC_2.25+0xfffffffffffe40ff>
   11296:	38d13c23          	sd	a3,920(sp)
   1129a:	2a812683          	lw	a3,680(sp)
   1129e:	7f013023          	sd	a6,2016(sp)
   112a2:	28812803          	lw	a6,648(sp)
   112a6:	fba2                	sd	s0,496(sp)
   112a8:	030ede93          	srli	t4,t4,0x30
   112ac:	e376                	sd	t4,384(sp)
   112ae:	03168a3b          	mulw	s4,a3,a7
   112b2:	66de                	ld	a3,464(sp)
   112b4:	488a                	lw	a7,128(sp)
   112b6:	0066c333          	xor	t1,a3,t1
   112ba:	03031493          	slli	s1,t1,0x30
   112be:	f233869b          	addiw	a3,t2,-221
   112c2:	737d                	lui	t1,0xfffff
   112c4:	7cd12c23          	sw	a3,2008(sp)
   112c8:	23a3069b          	addiw	a3,t1,570
   112cc:	7cd12e23          	sw	a3,2012(sp)
   112d0:	16812683          	lw	a3,360(sp)
   112d4:	73ba                	ld	t2,424(sp)
   112d6:	1a42                	slli	s4,s4,0x30
   112d8:	02d886bb          	mulw	a3,a7,a3
   112dc:	030a5a13          	srli	s4,s4,0x30
   112e0:	014388bb          	addw	a7,t2,s4
   112e4:	18c2                	slli	a7,a7,0x30
   112e6:	0308d893          	srli	a7,a7,0x30
   112ea:	85c6                	mv	a1,a7
   112ec:	78ed                	lui	a7,0xffffb
   112ee:	8ec6                	mv	t4,a7
   112f0:	f2388893          	addi	a7,a7,-221 # ffffffffffffaf23 <stderr@@GLIBC_2.25+0xfffffffffffdfee3>
   112f4:	7d113823          	sd	a7,2000(sp)
   112f8:	0368043b          	mulw	s0,a6,s6
   112fc:	7856                	ld	a6,368(sp)
   112fe:	4e67889b          	addiw	a7,a5,1254
   11302:	6785                	lui	a5,0x1
   11304:	00d846b3          	xor	a3,a6,a3
   11308:	482a                	lw	a6,136(sp)
   1130a:	80878793          	addi	a5,a5,-2040 # 808 <fprintf@plt-0xfbc8>
   1130e:	16c2                	slli	a3,a3,0x30
   11310:	978a                	add	a5,a5,sp
   11312:	92c1                	srli	a3,a3,0x30
   11314:	0117a023          	sw	a7,0(a5)
   11318:	010687bb          	addw	a5,a3,a6
   1131c:	6819                	lui	a6,0x6
   1131e:	03a80813          	addi	a6,a6,58 # 603a <fprintf@plt-0xa396>
   11322:	0107c7b3          	xor	a5,a5,a6
   11326:	1c812803          	lw	a6,456(sp)
   1132a:	03079b13          	slli	s6,a5,0x30
   1132e:	030b5b13          	srli	s6,s6,0x30
   11332:	016807bb          	addw	a5,a6,s6
   11336:	17c2                	slli	a5,a5,0x30
   11338:	688d                	lui	a7,0x3
   1133a:	93c1                	srli	a5,a5,0x30
   1133c:	28f5                	addiw	a7,a7,29
   1133e:	0117883b          	addw	a6,a5,a7
   11342:	41012c23          	sw	a6,1048(sp)
   11346:	00fb4833          	xor	a6,s6,a5
   1134a:	28f13423          	sd	a5,648(sp)
   1134e:	f2c2                	sd	a6,352(sp)
   11350:	2a012803          	lw	a6,672(sp)
   11354:	78d2                	ld	a7,304(sp)
   11356:	90c1                	srli	s1,s1,0x30
   11358:	0143cbb3          	xor	s7,t2,s4
   1135c:	031807bb          	mulw	a5,a6,a7
   11360:	03041813          	slli	a6,s0,0x30
   11364:	7461                	lui	s0,0xffff8
   11366:	03085813          	srli	a6,a6,0x30
   1136a:	6c240413          	addi	s0,s0,1730 # ffffffffffff86c2 <stderr@@GLIBC_2.25+0xfffffffffffdd682>
   1136e:	8942                	mv	s2,a6
   11370:	00884833          	xor	a6,a6,s0
   11374:	5406                	lw	s0,96(sp)
   11376:	2d213023          	sd	s2,704(sp)
   1137a:	0088083b          	addw	a6,a6,s0
   1137e:	1842                	slli	a6,a6,0x30
   11380:	03085813          	srli	a6,a6,0x30
   11384:	0128c433          	xor	s0,a7,s2
   11388:	0a1e8893          	addi	a7,t4,161 # ffffffffffff80a1 <stderr@@GLIBC_2.25+0xfffffffffffdd061>
   1138c:	2c813903          	ld	s2,712(sp)
   11390:	011848b3          	xor	a7,a6,a7
   11394:	18c2                	slli	a7,a7,0x30
   11396:	0308d893          	srli	a7,a7,0x30
   1139a:	e546                	sd	a7,136(sp)
   1139c:	0128c8b3          	xor	a7,a7,s2
   113a0:	8946                	mv	s2,a7
   113a2:	0a1e8e93          	addi	t4,t4,161
   113a6:	01d94eb3          	xor	t4,s2,t4
   113aa:	e7c6                	sd	a7,456(sp)
   113ac:	49d13423          	sd	t4,1160(sp)
   113b0:	58e2                	lw	a7,56(sp)
   113b2:	4ec2                	lw	t4,16(sp)
   113b4:	8fa5                	xor	a5,a5,s1
   113b6:	17c2                	slli	a5,a5,0x30
   113b8:	031e88bb          	mulw	a7,t4,a7
   113bc:	93c1                	srli	a5,a5,0x30
   113be:	6ebe                	ld	t4,456(sp)
   113c0:	00b7c933          	xor	s2,a5,a1
   113c4:	0123c933          	xor	s2,t2,s2
   113c8:	012803bb          	addw	t2,a6,s2
   113cc:	0127893b          	addw	s2,a5,s2
   113d0:	01d7c7b3          	xor	a5,a5,t4
   113d4:	21812e83          	lw	t4,536(sp)
   113d8:	2cb13423          	sd	a1,712(sp)
   113dc:	29015583          	lhu	a1,656(sp)
   113e0:	00de86bb          	addw	a3,t4,a3
   113e4:	1942                	slli	s2,s2,0x30
   113e6:	03095913          	srli	s2,s2,0x30
   113ea:	8ead                	xor	a3,a3,a1
   113ec:	18c2                	slli	a7,a7,0x30
   113ee:	65f6                	ld	a1,344(sp)
   113f0:	0308d893          	srli	a7,a7,0x30
   113f4:	e14a                	sd	s2,128(sp)
   113f6:	16c2                	slli	a3,a3,0x30
   113f8:	794e                	ld	s2,240(sp)
   113fa:	29812e83          	lw	t4,664(sp)
   113fe:	0158cab3          	xor	s5,a7,s5
   11402:	ebbe                	sd	a5,464(sp)
   11404:	92c1                	srli	a3,a3,0x30
   11406:	57c6                	lw	a5,112(sp)
   11408:	41513423          	sd	s5,1032(sp)
   1140c:	8ab6                	mv	s5,a3
   1140e:	8ead                	xor	a3,a3,a1
   11410:	00d946b3          	xor	a3,s2,a3
   11414:	02fe87bb          	mulw	a5,t4,a5
   11418:	29513823          	sd	s5,656(sp)
   1141c:	8eb6                	mv	t4,a3
   1141e:	86d6                	mv	a3,s5
   11420:	6a9d                	lui	s5,0x7
   11422:	4c0a8a93          	addi	s5,s5,1216 # 74c0 <fprintf@plt-0x8f10>
   11426:	0156c6b3          	xor	a3,a3,s5
   1142a:	f6b6                	sd	a3,360(sp)
   1142c:	6691                	lui	a3,0x4
   1142e:	a6068693          	addi	a3,a3,-1440 # 3a60 <fprintf@plt-0xc970>
   11432:	00dec6b3          	xor	a3,t4,a3
   11436:	54d13823          	sd	a3,1360(sp)
   1143a:	66a1                	lui	a3,0x8
   1143c:	1689                	addi	a3,a3,-30
   1143e:	3ad13023          	sd	a3,928(sp)
   11442:	86fe                	mv	a3,t6
   11444:	4fe6                	lw	t6,88(sp)
   11446:	6595                	lui	a1,0x5
   11448:	00f8c7b3          	xor	a5,a7,a5
   1144c:	03f686bb          	mulw	a3,a3,t6
   11450:	a8a58893          	addi	a7,a1,-1398 # 4a8a <fprintf@plt-0xb946>
   11454:	7b113823          	sd	a7,1968(sp)
   11458:	6899                	lui	a7,0x6
   1145a:	0828889b          	addiw	a7,a7,130
   1145e:	79112a23          	sw	a7,1940(sp)
   11462:	68f2                	ld	a7,280(sp)
   11464:	faf6                	sd	t4,368(sp)
   11466:	033080bb          	mulw	ra,ra,s3
   1146a:	16c2                	slli	a3,a3,0x30
   1146c:	92c1                	srli	a3,a3,0x30
   1146e:	0116c8b3          	xor	a7,a3,a7
   11472:	8fc6                	mv	t6,a7
   11474:	2b113423          	sd	a7,680(sp)
   11478:	789a                	ld	a7,416(sp)
   1147a:	011fc5b3          	xor	a1,t6,a7
   1147e:	7ff1                	lui	t6,0xffffc
   11480:	c8ef8f93          	addi	t6,t6,-882 # ffffffffffffbc8e <stderr@@GLIBC_2.25+0xfffffffffffe0c4e>
   11484:	7ff13823          	sd	t6,2032(sp)
   11488:	5aa12823          	sw	a0,1456(sp)
   1148c:	7fc13423          	sd	t3,2024(sp)
   11490:	5b430e1b          	addiw	t3,t1,1460
   11494:	01c080bb          	addw	ra,ra,t3
   11498:	2d013e03          	ld	t3,720(sp)
   1149c:	031f0f3b          	mulw	t5,t5,a7
   114a0:	20813883          	ld	a7,520(sp)
   114a4:	001e40b3          	xor	ra,t3,ra
   114a8:	03009e13          	slli	t3,ra,0x30
   114ac:	030e5e13          	srli	t3,t3,0x30
   114b0:	80f2                	mv	ra,t3
   114b2:	01c8ceb3          	xor	t4,a7,t3
   114b6:	6e19                	lui	t3,0x6
   114b8:	b4fe0e13          	addi	t3,t3,-1201 # 5b4f <fprintf@plt-0xa881>
   114bc:	01ceceb3          	xor	t4,t4,t3
   114c0:	7571                	lui	a0,0xffffc
   114c2:	6e4a                	ld	t3,144(sp)
   114c4:	4ff5051b          	addiw	a0,a0,1279
   114c8:	78a12223          	sw	a0,1924(sp)
   114cc:	7575                	lui	a0,0xffffd
   114ce:	001e4e33          	xor	t3,t3,ra
   114d2:	8eb5051b          	addiw	a0,a0,-1813
   114d6:	21c13c23          	sd	t3,536(sp)
   114da:	3aa12623          	sw	a0,940(sp)
   114de:	19812e03          	lw	t3,408(sp)
   114e2:	31812503          	lw	a0,792(sp)
   114e6:	892e                	mv	s2,a1
   114e8:	7ac2                	ld	s5,48(sp)
   114ea:	03c5033b          	mulw	t1,a0,t3
   114ee:	6e1a                	ld	t3,384(sp)
   114f0:	030f1513          	slli	a0,t5,0x30
   114f4:	9141                	srli	a0,a0,0x30
   114f6:	00b548b3          	xor	a7,a0,a1
   114fa:	7f26                	ld	t5,104(sp)
   114fc:	011e45b3          	xor	a1,t3,a7
   11500:	00b94e33          	xor	t3,s2,a1
   11504:	fc72                	sd	t3,56(sp)
   11506:	011c08bb          	addw	a7,s8,a7
   1150a:	8e2a                	mv	t3,a0
   1150c:	00af4533          	xor	a0,t5,a0
   11510:	8ea9                	xor	a3,a3,a0
   11512:	18c2                	slli	a7,a7,0x30
   11514:	01cc853b          	addw	a0,s9,t3
   11518:	6c9d                	lui	s9,0x7
   1151a:	0308d893          	srli	a7,a7,0x30
   1151e:	4d9c8f13          	addi	t5,s9,1241 # 74d9 <fprintf@plt-0x8ef7>
   11522:	01e8cf33          	xor	t5,a7,t5
   11526:	f77a                	sd	t5,424(sp)
   11528:	1b812f03          	lw	t5,440(sp)
   1152c:	03031c13          	slli	s8,t1,0x30
   11530:	030c5c13          	srli	s8,s8,0x30
   11534:	2e113423          	sd	ra,744(sp)
   11538:	ef72                	sd	t3,408(sp)
   1153a:	018f00bb          	addw	ra,t5,s8
   1153e:	33013e03          	ld	t3,816(sp)
   11542:	44a12823          	sw	a0,1104(sp)
   11546:	10c2                	slli	ra,ra,0x30
   11548:	6521                	lui	a0,0x8
   1154a:	0300d093          	srli	ra,ra,0x30
   1154e:	fce5051b          	addiw	a0,a0,-50
   11552:	02aa853b          	mulw	a0,s5,a0
   11556:	01c0ce33          	xor	t3,ra,t3
   1155a:	31c13c23          	sd	t3,792(sp)
   1155e:	7e69                	lui	t3,0xffffa
   11560:	6cbe0e13          	addi	t3,t3,1739 # ffffffffffffa6cb <stderr@@GLIBC_2.25+0xfffffffffffdf68b>
   11564:	01c8c8b3          	xor	a7,a7,t3
   11568:	6e11                	lui	t3,0x4
   1156a:	d6de0f1b          	addiw	t5,t3,-659
   1156e:	21013f83          	ld	t6,528(sp)
   11572:	fa62                	sd	s8,304(sp)
   11574:	03e6063b          	mulw	a2,a2,t5
   11578:	7c72                	ld	s8,312(sp)
   1157a:	01f0c0b3          	xor	ra,ra,t6
   1157e:	1d812e03          	lw	t3,472(sp)
   11582:	001c4fb3          	xor	t6,s8,ra
   11586:	33f13823          	sd	t6,816(sp)
   1158a:	03089f93          	slli	t6,a7,0x30
   1158e:	03051893          	slli	a7,a0,0x30
   11592:	0308d893          	srli	a7,a7,0x30
   11596:	7f69                	lui	t5,0xffffa
   11598:	011acc33          	xor	s8,s5,a7
   1159c:	030fdf93          	srli	t6,t6,0x30
   115a0:	cfff0f1b          	addiw	t5,t5,-769
   115a4:	8362                	mv	t1,s8
   115a6:	ff7e                	sd	t6,440(sp)
   115a8:	018a8fbb          	addw	t6,s5,s8
   115ac:	01e88c3b          	addw	s8,a7,t5
   115b0:	030c1513          	slli	a0,s8,0x30
   115b4:	03c989bb          	mulw	s3,s3,t3
   115b8:	1fc2                	slli	t6,t6,0x30
   115ba:	32012e03          	lw	t3,800(sp)
   115be:	030fdf93          	srli	t6,t6,0x30
   115c2:	9141                	srli	a0,a0,0x30
   115c4:	1642                	slli	a2,a2,0x30
   115c6:	00af8f3b          	addw	t5,t6,a0
   115ca:	28a13c23          	sd	a0,664(sp)
   115ce:	9241                	srli	a2,a2,0x30
   115d0:	01f8c533          	xor	a0,a7,t6
   115d4:	38a13023          	sd	a0,896(sp)
   115d8:	00ce053b          	addw	a0,t3,a2
   115dc:	03051a93          	slli	s5,a0,0x30
   115e0:	25013503          	ld	a0,592(sp)
   115e4:	030ada93          	srli	s5,s5,0x30
   115e8:	f34a                	sd	s2,416(sp)
   115ea:	8e29                	xor	a2,a2,a0
   115ec:	21513823          	sd	s5,528(sp)
   115f0:	1f42                	slli	t5,t5,0x30
   115f2:	32c13c23          	sd	a2,824(sp)
   115f6:	030f5f13          	srli	t5,t5,0x30
   115fa:	00c5093b          	addw	s2,a0,a2
   115fe:	00131613          	slli	a2,t1,0x1
   11602:	2be13023          	sd	t5,672(sp)
   11606:	00cf4633          	xor	a2,t5,a2
   1160a:	7f76                	ld	t5,376(sp)
   1160c:	1642                	slli	a2,a2,0x30
   1160e:	9241                	srli	a2,a2,0x30
   11610:	013f49b3          	xor	s3,t5,s3
   11614:	03b282bb          	mulw	t0,t0,s11
   11618:	03099513          	slli	a0,s3,0x30
   1161c:	1ec2                	slli	t4,t4,0x30
   1161e:	00c349b3          	xor	s3,t1,a2
   11622:	1942                	slli	s2,s2,0x30
   11624:	030ede93          	srli	t4,t4,0x30
   11628:	03095913          	srli	s2,s2,0x30
   1162c:	43313423          	sd	s3,1064(sp)
   11630:	7e69                	lui	t3,0xffffa
   11632:	89c6                	mv	s3,a7
   11634:	00c8c8b3          	xor	a7,a7,a2
   11638:	9141                	srli	a0,a0,0x30
   1163a:	e846                	sd	a7,16(sp)
   1163c:	eb6e0e13          	addi	t3,t3,-330 # ffffffffffff9eb6 <stderr@@GLIBC_2.25+0xfffffffffffdee76>
   11640:	01d908bb          	addw	a7,s2,t4
   11644:	01c54c33          	xor	s8,a0,t3
   11648:	18c2                	slli	a7,a7,0x30
   1164a:	7e79                	lui	t3,0xffffe
   1164c:	7f79                	lui	t5,0xffffe
   1164e:	0308d893          	srli	a7,a7,0x30
   11652:	73fe0e1b          	addiw	t3,t3,1855
   11656:	8cc6                	mv	s9,a7
   11658:	8afa                	mv	s5,t5
   1165a:	01c608bb          	addw	a7,a2,t3
   1165e:	6e12                	ld	t3,256(sp)
   11660:	7fcf0613          	addi	a2,t5,2044 # ffffffffffffe7fc <stderr@@GLIBC_2.25+0xfffffffffffe37bc>
   11664:	2b812f03          	lw	t5,696(sp)
   11668:	fe9a                	sd	t1,376(sp)
   1166a:	25813d83          	ld	s11,600(sp)
   1166e:	03ee033b          	mulw	t1,t3,t5
   11672:	26013f03          	ld	t5,608(sp)
   11676:	12c2                	slli	t0,t0,0x30
   11678:	0302d293          	srli	t0,t0,0x30
   1167c:	00c9c633          	xor	a2,s3,a2
   11680:	4cc13023          	sd	a2,1216(sp)
   11684:	005f4633          	xor	a2,t5,t0
   11688:	00cdc633          	xor	a2,s11,a2
   1168c:	4ac13423          	sd	a2,1192(sp)
   11690:	6622                	ld	a2,8(sp)
   11692:	26813d83          	ld	s11,616(sp)
   11696:	1e012f03          	lw	t5,480(sp)
   1169a:	00564633          	xor	a2,a2,t0
   1169e:	0056063b          	addw	a2,a2,t0
   116a2:	01b2c2b3          	xor	t0,t0,s11
   116a6:	4e513823          	sd	t0,1264(sp)
   116aa:	03089293          	slli	t0,a7,0x30
   116ae:	0302d293          	srli	t0,t0,0x30
   116b2:	8d96                	mv	s11,t0
   116b4:	31812283          	lw	t0,792(sp)
   116b8:	1342                	slli	t1,t1,0x30
   116ba:	03035313          	srli	t1,t1,0x30
   116be:	005080bb          	addw	ra,ra,t0
   116c2:	1b012283          	lw	t0,432(sp)
   116c6:	f966                	sd	s9,176(sp)
   116c8:	1642                	slli	a2,a2,0x30
   116ca:	03e288bb          	mulw	a7,t0,t5
   116ce:	62b2                	ld	t0,264(sp)
   116d0:	9241                	srli	a2,a2,0x30
   116d2:	0062cf33          	xor	t5,t0,t1
   116d6:	01ee02bb          	addw	t0,t3,t5
   116da:	50512c23          	sw	t0,1304(sp)
   116de:	49012283          	lw	t0,1168(sp)
   116e2:	00628e3b          	addw	t3,t0,t1
   116e6:	01cf42b3          	xor	t0,t5,t3
   116ea:	52513823          	sd	t0,1328(sp)
   116ee:	47012283          	lw	t0,1136(sp)
   116f2:	18c2                	slli	a7,a7,0x30
   116f4:	0308d893          	srli	a7,a7,0x30
   116f8:	0062833b          	addw	t1,t0,t1
   116fc:	694a8293          	addi	t0,s5,1684
   11700:	00534333          	xor	t1,t1,t0
   11704:	03031293          	slli	t0,t1,0x30
   11708:	0302d293          	srli	t0,t0,0x30
   1170c:	f216                	sd	t0,288(sp)
   1170e:	03009293          	slli	t0,ra,0x30
   11712:	0302d293          	srli	t0,t0,0x30
   11716:	8f16                	mv	t5,t0
   11718:	72da                	ld	t0,432(sp)
   1171a:	49815303          	lhu	t1,1176(sp)
   1171e:	708e                	ld	ra,224(sp)
   11720:	0112c2b3          	xor	t0,t0,a7
   11724:	005d4d33          	xor	s10,s10,t0
   11728:	1c012e03          	lw	t3,448(sp)
   1172c:	4ba13823          	sd	s10,1200(sp)
   11730:	8d7a                	mv	s10,t5
   11732:	006d4333          	xor	t1,s10,t1
   11736:	021e0e3b          	mulw	t3,t3,ra
   1173a:	03031d13          	slli	s10,t1,0x30
   1173e:	030d5d13          	srli	s10,s10,0x30
   11742:	33a13023          	sd	s10,800(sp)
   11746:	7d6d                	lui	s10,0xffffb
   11748:	49e13823          	sd	t5,1168(sp)
   1174c:	da7d0f1b          	addiw	t5,s10,-601
   11750:	019f0f3b          	addw	t5,t5,s9
   11754:	2c513823          	sd	t0,720(sp)
   11758:	5fe11023          	sh	t5,1504(sp)
   1175c:	ecce                	sd	s3,88(sp)
   1175e:	01b9c9b3          	xor	s3,s3,s11
   11762:	47313823          	sd	s3,1136(sp)
   11766:	11812983          	lw	s3,280(sp)
   1176a:	72ee                	ld	t0,248(sp)
   1176c:	1e42                	slli	t3,t3,0x30
   1176e:	033787bb          	mulw	a5,a5,s3
   11772:	3b012983          	lw	s3,944(sp)
   11776:	030e5e13          	srli	t3,t3,0x30
   1177a:	00564f33          	xor	t5,a2,t0
   1177e:	01c989bb          	addw	s3,s3,t3
   11782:	62ee                	ld	t0,216(sp)
   11784:	51e13023          	sd	t5,1280(sp)
   11788:	f0ee                	sd	s11,96(sp)
   1178a:	7f2e                	ld	t5,232(sp)
   1178c:	6d99                	lui	s11,0x6
   1178e:	19c2                	slli	s3,s3,0x30
   11790:	082d8d13          	addi	s10,s11,130 # 6082 <fprintf@plt-0xa34e>
   11794:	0309d993          	srli	s3,s3,0x30
   11798:	0132c2b3          	xor	t0,t0,s3
   1179c:	79a13c23          	sd	s10,1944(sp)
   117a0:	6d21                	lui	s10,0x8
   117a2:	01e2cdb3          	xor	s11,t0,t5
   117a6:	01c0cf33          	xor	t5,ra,t3
   117aa:	ee0d009b          	addiw	ra,s10,-288
   117ae:	0012833b          	addw	t1,t0,ra
   117b2:	50ce                	lw	ra,240(sp)
   117b4:	8fad                	xor	a5,a5,a1
   117b6:	9ebd                	addw	a3,a3,a5
   117b8:	03608abb          	mulw	s5,ra,s6
   117bc:	70e2                	ld	ra,56(sp)
   117be:	16c2                	slli	a3,a3,0x30
   117c0:	92c1                	srli	a3,a3,0x30
   117c2:	00d087bb          	addw	a5,ra,a3
   117c6:	01e9cf33          	xor	t5,s3,t5
   117ca:	03031c93          	slli	s9,t1,0x30
   117ce:	03079593          	slli	a1,a5,0x30
   117d2:	01bf0f3b          	addw	t5,t5,s11
   117d6:	030cdc93          	srli	s9,s9,0x30
   117da:	91c1                	srli	a1,a1,0x30
   117dc:	8d66                	mv	s10,s9
   117de:	8cae                	mv	s9,a1
   117e0:	030f1593          	slli	a1,t5,0x30
   117e4:	91c1                	srli	a1,a1,0x30
   117e6:	f9ae                	sd	a1,240(sp)
   117e8:	46812583          	lw	a1,1128(sp)
   117ec:	25a13c23          	sd	s10,600(sp)
   117f0:	77fd                	lui	a5,0xfffff
   117f2:	01a58d3b          	addw	s10,a1,s10
   117f6:	028385bb          	mulw	a1,t2,s0
   117fa:	f1f7831b          	addiw	t1,a5,-225
   117fe:	0190c3b3          	xor	t2,ra,s9
   11802:	679d                	lui	a5,0x7
   11804:	4a713c23          	sd	t2,1208(sp)
   11808:	03f78393          	addi	t2,a5,63 # 703f <fprintf@plt-0x9391>
   1180c:	007e43b3          	xor	t2,t3,t2
   11810:	66713023          	sd	t2,1632(sp)
   11814:	6389                	lui	t2,0x2
   11816:	7ee13c23          	sd	a4,2040(sp)
   1181a:	3af3871b          	addiw	a4,t2,943
   1181e:	63aa                	ld	t2,136(sp)
   11820:	15c2                	slli	a1,a1,0x30
   11822:	91c1                	srli	a1,a1,0x30
   11824:	00b3c3b3          	xor	t2,t2,a1
   11828:	6785                	lui	a5,0x1
   1182a:	ef9e                	sd	t2,472(sp)
   1182c:	81878793          	addi	a5,a5,-2024 # 818 <fprintf@plt-0xfbb8>
   11830:	73e1                	lui	t2,0xffff8
   11832:	2e63839b          	addiw	t2,t2,742
   11836:	978a                	add	a5,a5,sp
   11838:	0077a023          	sw	t2,0(a5)
   1183c:	3ae12823          	sw	a4,944(sp)
   11840:	6785                	lui	a5,0x1
   11842:	6709                	lui	a4,0x2
   11844:	54570713          	addi	a4,a4,1349 # 2545 <fprintf@plt-0xde8b>
   11848:	6385                	lui	t2,0x1
   1184a:	81c78793          	addi	a5,a5,-2020 # 81c <fprintf@plt-0xfbb4>
   1184e:	7ae13c23          	sd	a4,1976(sp)
   11852:	b9a3839b          	addiw	t2,t2,-1126
   11856:	978a                	add	a5,a5,sp
   11858:	7765                	lui	a4,0xffff9
   1185a:	0077a023          	sw	t2,0(a5)
   1185e:	5147071b          	addiw	a4,a4,1300
   11862:	77e1                	lui	a5,0xffff8
   11864:	20978e13          	addi	t3,a5,521 # ffffffffffff8209 <stderr@@GLIBC_2.25+0xfffffffffffdd1c9>
   11868:	7ce12223          	sw	a4,1988(sp)
   1186c:	6391                	lui	t2,0x4
   1186e:	670d                	lui	a4,0x3
   11870:	0062833b          	addw	t1,t0,t1
   11874:	a2970713          	addi	a4,a4,-1495 # 2a29 <fprintf@plt-0xd9a7>
   11878:	7bc13023          	sd	t3,1952(sp)
   1187c:	33c5                	addiw	t2,t2,-15
   1187e:	6e05                	lui	t3,0x1
   11880:	6785                	lui	a5,0x1
   11882:	27b13423          	sd	s11,616(sp)
   11886:	64612023          	sw	t1,1600(sp)
   1188a:	5fa11823          	sh	s10,1520(sp)
   1188e:	f8e6                	sd	s9,112(sp)
   11890:	7ce13423          	sd	a4,1992(sp)
   11894:	78712823          	sw	t2,1936(sp)
   11898:	04ce0e13          	addi	t3,t3,76 # 104c <fprintf@plt-0xf384>
   1189c:	73e5                	lui	t2,0xffff9
   1189e:	80078793          	addi	a5,a5,-2048 # 800 <fprintf@plt-0xfbd0>
   118a2:	7bc13423          	sd	t3,1960(sp)
   118a6:	978a                	add	a5,a5,sp
   118a8:	ebc38e13          	addi	t3,t2,-324 # ffffffffffff8ebc <stderr@@GLIBC_2.25+0xfffffffffffdde7c>
   118ac:	01c7b023          	sd	t3,0(a5)
   118b0:	3f012383          	lw	t2,1008(sp)
   118b4:	40812e03          	lw	t3,1032(sp)
   118b8:	034b873b          	mulw	a4,s7,s4
   118bc:	5be6                	lw	s7,120(sp)
   118be:	000197b7          	lui	a5,0x19
   118c2:	1c078793          	addi	a5,a5,448 # 191c0 <puts@plt+0x8dd0>
   118c6:	4cf13c23          	sd	a5,1240(sp)
   118ca:	6785                	lui	a5,0x1
   118cc:	82078793          	addi	a5,a5,-2016 # 820 <fprintf@plt-0xfbb0>
   118d0:	978a                	add	a5,a5,sp
   118d2:	54f13423          	sd	a5,1352(sp)
   118d6:	53815783          	lhu	a5,1336(sp)
   118da:	03c382bb          	mulw	t0,t2,t3
   118de:	18812e03          	lw	t3,392(sp)
   118e2:	6385                	lui	t2,0x1
   118e4:	1ac2                	slli	s5,s5,0x30
   118e6:	030ada93          	srli	s5,s5,0x30
   118ea:	030a0a3b          	mulw	s4,s4,a6
   118ee:	03c48cbb          	mulw	s9,s1,t3
   118f2:	54a6                	lw	s1,104(sp)
   118f4:	01474733          	xor	a4,a4,s4
   118f8:	45012e03          	lw	t3,1104(sp)
   118fc:	43638a1b          	addiw	s4,t2,1078
   11900:	009283bb          	addw	t2,t0,s1
   11904:	13c2                	slli	t2,t2,0x30
   11906:	0303d393          	srli	t2,t2,0x30
   1190a:	1a012483          	lw	s1,416(sp)
   1190e:	007e0e3b          	addw	t3,t3,t2
   11912:	1e42                	slli	t3,t3,0x30
   11914:	030e5e13          	srli	t3,t3,0x30
   11918:	01c4833b          	addw	t1,s1,t3
   1191c:	72ba                	ld	t0,424(sp)
   1191e:	03031d13          	slli	s10,t1,0x30
   11922:	030d5d13          	srli	s10,s10,0x30
   11926:	01a6cf33          	xor	t5,a3,s10
   1192a:	01e2c4b3          	xor	s1,t0,t5
   1192e:	e3a6                	sd	s1,448(sp)
   11930:	1742                	slli	a4,a4,0x30
   11932:	74fa                	ld	s1,440(sp)
   11934:	9341                	srli	a4,a4,0x30
   11936:	01470a3b          	addw	s4,a4,s4
   1193a:	47412423          	sw	s4,1128(sp)
   1193e:	009f4a33          	xor	s4,t5,s1
   11942:	30812483          	lw	s1,776(sp)
   11946:	6291                	lui	t0,0x4
   11948:	1cc2                	slli	s9,s9,0x30
   1194a:	fb7a                	sd	t5,432(sp)
   1194c:	030cdc93          	srli	s9,s9,0x30
   11950:	029b8f3b          	mulw	t5,s7,s1
   11954:	36128b93          	addi	s7,t0,865 # 4361 <fprintf@plt-0xc06f>
   11958:	017cc333          	xor	t1,s9,s7
   1195c:	00684833          	xor	a6,a6,t1
   11960:	8dc2                	mv	s11,a6
   11962:	6819                	lui	a6,0x6
   11964:	d368081b          	addiw	a6,a6,-714
   11968:	010a083b          	addw	a6,s4,a6
   1196c:	20012b83          	lw	s7,512(sp)
   11970:	4f012023          	sw	a6,1248(sp)
   11974:	27012803          	lw	a6,624(sp)
   11978:	1f42                	slli	t5,t5,0x30
   1197a:	030f5f13          	srli	t5,t5,0x30
   1197e:	0378083b          	mulw	a6,a6,s7
   11982:	52812b83          	lw	s7,1320(sp)
   11986:	fcd2                	sd	s4,120(sp)
   11988:	7a2a                	ld	s4,168(sp)
   1198a:	01eb84bb          	addw	s1,s7,t5
   1198e:	35012b83          	lw	s7,848(sp)
   11992:	14c2                	slli	s1,s1,0x30
   11994:	90c1                	srli	s1,s1,0x30
   11996:	0174833b          	addw	t1,s1,s7
   1199a:	28013b83          	ld	s7,640(sp)
   1199e:	1342                	slli	t1,t1,0x30
   119a0:	03035313          	srli	t1,t1,0x30
   119a4:	006bcbb3          	xor	s7,s7,t1
   119a8:	2b713c23          	sd	s7,696(sp)
   119ac:	01ea4bb3          	xor	s7,s4,t5
   119b0:	71713c23          	sd	s7,1816(sp)
   119b4:	73828b93          	addi	s7,t0,1848
   119b8:	8a16                	mv	s4,t0
   119ba:	017f42b3          	xor	t0,t5,s7
   119be:	00f2cf33          	xor	t5,t0,a5
   119c2:	51012b83          	lw	s7,1296(sp)
   119c6:	77d2                	ld	a5,304(sp)
   119c8:	48513c23          	sd	t0,1176(sp)
   119cc:	1842                	slli	a6,a6,0x30
   119ce:	02fb82bb          	mulw	t0,s7,a5
   119d2:	7bfe                	ld	s7,504(sp)
   119d4:	03085813          	srli	a6,a6,0x30
   119d8:	953a0a13          	addi	s4,s4,-1709
   119dc:	010bcbb3          	xor	s7,s7,a6
   119e0:	014bca33          	xor	s4,s7,s4
   119e4:	5b413c23          	sd	s4,1464(sp)
   119e8:	27812a03          	lw	s4,632(sp)
   119ec:	0148083b          	addw	a6,a6,s4
   119f0:	22012a03          	lw	s4,544(sp)
   119f4:	0148083b          	addw	a6,a6,s4
   119f8:	1842                	slli	a6,a6,0x30
   119fa:	03085813          	srli	a6,a6,0x30
   119fe:	8a42                	mv	s4,a6
   11a00:	01e34833          	xor	a6,t1,t5
   11a04:	73013023          	sd	a6,1824(sp)
   11a08:	24013803          	ld	a6,576(sp)
   11a0c:	3f413823          	sd	s4,1008(sp)
   11a10:	01484833          	xor	a6,a6,s4
   11a14:	25013823          	sd	a6,592(sp)
   11a18:	18012803          	lw	a6,384(sp)
   11a1c:	0218043b          	mulw	s0,a6,ra
   11a20:	0057c833          	xor	a6,a5,t0
   11a24:	21013023          	sd	a6,512(sp)
   11a28:	45812803          	lw	a6,1112(sp)
   11a2c:	1e012083          	lw	ra,480(sp)
   11a30:	03180f3b          	mulw	t5,a6,a7
   11a34:	484a                	lw	a6,144(sp)
   11a36:	1442                	slli	s0,s0,0x30
   11a38:	9041                	srli	s0,s0,0x30
   11a3a:	02a8083b          	mulw	a6,a6,a0
   11a3e:	1f012503          	lw	a0,496(sp)
   11a42:	1f42                	slli	t5,t5,0x30
   11a44:	030f5f13          	srli	t5,t5,0x30
   11a48:	01e5053b          	addw	a0,a0,t5
   11a4c:	01e08f3b          	addw	t5,ra,t5
   11a50:	030f1293          	slli	t0,t5,0x30
   11a54:	1542                	slli	a0,a0,0x30
   11a56:	9141                	srli	a0,a0,0x30
   11a58:	0302d293          	srli	t0,t0,0x30
   11a5c:	005540b3          	xor	ra,a0,t0
   11a60:	50113823          	sd	ra,1296(sp)
   11a64:	21012083          	lw	ra,528(sp)
   11a68:	1842                	slli	a6,a6,0x30
   11a6a:	00a8833b          	addw	t1,a7,a0
   11a6e:	03d080bb          	mulw	ra,ra,t4
   11a72:	03085813          	srli	a6,a6,0x30
   11a76:	03031f13          	slli	t5,t1,0x30
   11a7a:	40513423          	sd	t0,1032(sp)
   11a7e:	0055033b          	addw	t1,a0,t0
   11a82:	82c2                	mv	t0,a6
   11a84:	01284833          	xor	a6,a6,s2
   11a88:	23013023          	sd	a6,544(sp)
   11a8c:	010c083b          	addw	a6,s8,a6
   11a90:	57012c23          	sw	a6,1400(sp)
   11a94:	03031813          	slli	a6,t1,0x30
   11a98:	03085813          	srli	a6,a6,0x30
   11a9c:	4a812903          	lw	s2,1192(sp)
   11aa0:	f542                	sd	a6,168(sp)
   11aa2:	4c812803          	lw	a6,1224(sp)
   11aa6:	10c2                	slli	ra,ra,0x30
   11aa8:	0300d093          	srli	ra,ra,0x30
   11aac:	0328083b          	mulw	a6,a6,s2
   11ab0:	001eceb3          	xor	t4,t4,ra
   11ab4:	4c26                	lw	s8,72(sp)
   11ab6:	53d13423          	sd	t4,1320(sp)
   11aba:	51812e83          	lw	t4,1304(sp)
   11abe:	0012c933          	xor	s2,t0,ra
   11ac2:	55213c23          	sd	s2,1368(sp)
   11ac6:	6322                	ld	t1,8(sp)
   11ac8:	030f5f13          	srli	t5,t5,0x30
   11acc:	fffa                	sd	t5,504(sp)
   11ace:	038e893b          	mulw	s2,t4,s8
   11ad2:	1842                	slli	a6,a6,0x30
   11ad4:	03085813          	srli	a6,a6,0x30
   11ad8:	7eee                	ld	t4,248(sp)
   11ada:	01034c33          	xor	s8,t1,a6
   11ade:	01030a3b          	addw	s4,t1,a6
   11ae2:	26012f03          	lw	t5,608(sp)
   11ae6:	4f013303          	ld	t1,1264(sp)
   11aea:	1a42                	slli	s4,s4,0x30
   11aec:	01d84eb3          	xor	t4,a6,t4
   11af0:	030a5a13          	srli	s4,s4,0x30
   11af4:	006a4333          	xor	t1,s4,t1
   11af8:	30513423          	sd	t0,776(sp)
   11afc:	010f02bb          	addw	t0,t5,a6
   11b00:	01d64f33          	xor	t5,a2,t4
   11b04:	4d813423          	sd	s8,1224(sp)
   11b08:	006f0f3b          	addw	t5,t5,t1
   11b0c:	5c42                	lw	s8,48(sp)
   11b0e:	1f42                	slli	t5,t5,0x30
   11b10:	34013783          	ld	a5,832(sp)
   11b14:	030f5f13          	srli	t5,t5,0x30
   11b18:	1942                	slli	s2,s2,0x30
   11b1a:	03095913          	srli	s2,s2,0x30
   11b1e:	03fc0fbb          	mulw	t6,s8,t6
   11b22:	27e13c23          	sd	t5,632(sp)
   11b26:	7f69                	lui	t5,0xffffa
   11b28:	0127cc33          	xor	s8,a5,s2
   11b2c:	539f0f1b          	addiw	t5,t5,1337
   11b30:	53013783          	ld	a5,1328(sp)
   11b34:	ee62                	sd	s8,280(sp)
   11b36:	018f0f3b          	addw	t5,t5,s8
   11b3a:	6c32                	ld	s8,264(sp)
   11b3c:	12c2                	slli	t0,t0,0x30
   11b3e:	00f947b3          	xor	a5,s2,a5
   11b42:	01ec4f33          	xor	t5,s8,t5
   11b46:	0302d293          	srli	t0,t0,0x30
   11b4a:	64f13423          	sd	a5,1608(sp)
   11b4e:	030f1793          	slli	a5,t5,0x30
   11b52:	0062cf33          	xor	t5,t0,t1
   11b56:	4fe13823          	sd	t5,1264(sp)
   11b5a:	38013f03          	ld	t5,896(sp)
   11b5e:	32812c03          	lw	s8,808(sp)
   11b62:	0146063b          	addw	a2,a2,s4
   11b66:	01ff4fb3          	xor	t6,t5,t6
   11b6a:	6f66                	ld	t5,88(sp)
   11b6c:	1fc2                	slli	t6,t6,0x30
   11b6e:	030fdf93          	srli	t6,t6,0x30
   11b72:	e37e                	sd	t6,384(sp)
   11b74:	01ff4fb3          	xor	t6,t5,t6
   11b78:	033c09bb          	mulw	s3,s8,s3
   11b7c:	e77e                	sd	t6,392(sp)
   11b7e:	6fd2                	ld	t6,272(sp)
   11b80:	7f12                	ld	t5,288(sp)
   11b82:	52c11823          	sh	a2,1328(sp)
   11b86:	012fc633          	xor	a2,t6,s2
   11b8a:	45213c23          	sd	s2,1112(sp)
   11b8e:	01e64933          	xor	s2,a2,t5
   11b92:	93c1                	srli	a5,a5,0x30
   11b94:	00cf863b          	addw	a2,t6,a2
   11b98:	63213823          	sd	s2,1584(sp)
   11b9c:	6915                	lui	s2,0x5
   11b9e:	d8f90913          	addi	s2,s2,-625 # 4d8f <fprintf@plt-0xb641>
   11ba2:	62c12c23          	sw	a2,1592(sp)
   11ba6:	00ffc633          	xor	a2,t6,a5
   11baa:	01234333          	xor	t1,t1,s2
   11bae:	6cc13423          	sd	a2,1736(sp)
   11bb2:	3c813903          	ld	s2,968(sp)
   11bb6:	15012603          	lw	a2,336(sp)
   11bba:	52613c23          	sd	t1,1336(sp)
   11bbe:	38f13023          	sd	a5,896(sp)
   11bc2:	0326033b          	mulw	t1,a2,s2
   11bc6:	03099613          	slli	a2,s3,0x30
   11bca:	25813983          	ld	s3,600(sp)
   11bce:	9241                	srli	a2,a2,0x30
   11bd0:	3d813783          	ld	a5,984(sp)
   11bd4:	00c9c9b3          	xor	s3,s3,a2
   11bd8:	8c4e                	mv	s8,s3
   11bda:	59ae                	lw	s3,232(sp)
   11bdc:	5f82                	lw	t6,32(sp)
   11bde:	013609bb          	addw	s3,a2,s3
   11be2:	61312c23          	sw	s3,1560(sp)
   11be6:	4a012983          	lw	s3,1184(sp)
   11bea:	0067c333          	xor	t1,a5,t1
   11bee:	028686bb          	mulw	a3,a3,s0
   11bf2:	00c989bb          	addw	s3,s3,a2
   11bf6:	3d312423          	sw	s3,968(sp)
   11bfa:	49ee                	lw	s3,216(sp)
   11bfc:	03f98f3b          	mulw	t5,s3,t6
   11c00:	03031993          	slli	s3,t1,0x30
   11c04:	0309d993          	srli	s3,s3,0x30
   11c08:	4b313023          	sd	s3,1184(sp)
   11c0c:	013949b3          	xor	s3,s2,s3
   11c10:	0139033b          	addw	t1,s2,s3
   11c14:	1342                	slli	t1,t1,0x30
   11c16:	7975                	lui	s2,0xffffd
   11c18:	03035313          	srli	t1,t1,0x30
   11c1c:	8ff90913          	addi	s2,s2,-1793 # ffffffffffffc8ff <stderr@@GLIBC_2.25+0xfffffffffffe18bf>
   11c20:	01234933          	xor	s2,t1,s2
   11c24:	7ff9                	lui	t6,0xffffe
   11c26:	4b313423          	sd	s3,1192(sp)
   11c2a:	0067c9b3          	xor	s3,a5,t1
   11c2e:	6f213423          	sd	s2,1768(sp)
   11c32:	897e                	mv	s2,t6
   11c34:	47ff8f93          	addi	t6,t6,1151 # ffffffffffffe47f <stderr@@GLIBC_2.25+0xfffffffffffe343f>
   11c38:	01f9cfb3          	xor	t6,s3,t6
   11c3c:	6ff13823          	sd	t6,1776(sp)
   11c40:	15812f83          	lw	t6,344(sp)
   11c44:	01e64633          	xor	a2,a2,t5
   11c48:	27813823          	sd	s8,624(sp)
   11c4c:	03fb033b          	mulw	t1,s6,t6
   11c50:	03061b13          	slli	s6,a2,0x30
   11c54:	030b5b13          	srli	s6,s6,0x30
   11c58:	27613023          	sd	s6,608(sp)
   11c5c:	865a                	mv	a2,s6
   11c5e:	26813b03          	ld	s6,616(sp)
   11c62:	19012f83          	lw	t6,400(sp)
   11c66:	16c2                	slli	a3,a3,0x30
   11c68:	01664633          	xor	a2,a2,s6
   11c6c:	8b32                	mv	s6,a2
   11c6e:	018b0b3b          	addw	s6,s6,s8
   11c72:	63612023          	sw	s6,1568(sp)
   11c76:	3f812b03          	lw	s6,1016(sp)
   11c7a:	3cc13c23          	sd	a2,984(sp)
   11c7e:	03da0a3b          	mulw	s4,s4,t4
   11c82:	92c1                	srli	a3,a3,0x30
   11c84:	035b0f3b          	mulw	t5,s6,s5
   11c88:	28813b03          	ld	s6,648(sp)
   11c8c:	1a42                	slli	s4,s4,0x30
   11c8e:	030a5a13          	srli	s4,s4,0x30
   11c92:	006b4633          	xor	a2,s6,t1
   11c96:	6b0a                	ld	s6,128(sp)
   11c98:	1642                	slli	a2,a2,0x30
   11c9a:	9241                	srli	a2,a2,0x30
   11c9c:	02bb05bb          	mulw	a1,s6,a1
   11ca0:	015f033b          	addw	t1,t5,s5
   11ca4:	2c012a83          	lw	s5,704(sp)
   11ca8:	2a012f03          	lw	t5,672(sp)
   11cac:	1342                	slli	t1,t1,0x30
   11cae:	03035313          	srli	t1,t1,0x30
   11cb2:	03fa8fbb          	mulw	t6,s5,t6
   11cb6:	15c2                	slli	a1,a1,0x30
   11cb8:	91c1                	srli	a1,a1,0x30
   11cba:	00bb4ab3          	xor	s5,s6,a1
   11cbe:	2d513023          	sd	s5,704(sp)
   11cc2:	1d012a83          	lw	s5,464(sp)
   11cc6:	00ba8c3b          	addw	s8,s5,a1
   11cca:	5ac2                	lw	s5,48(sp)
   11ccc:	016f8fbb          	addw	t6,t6,s6
   11cd0:	01f5c5b3          	xor	a1,a1,t6
   11cd4:	03ea8f3b          	mulw	t5,s5,t5
   11cd8:	15c2                	slli	a1,a1,0x30
   11cda:	91c1                	srli	a1,a1,0x30
   11cdc:	2a812b03          	lw	s6,680(sp)
   11ce0:	e92e                	sd	a1,144(sp)
   11ce2:	19812583          	lw	a1,408(sp)
   11ce6:	02bb0fbb          	mulw	t6,s6,a1
   11cea:	18812b03          	lw	s6,392(sp)
   11cee:	016f0f3b          	addw	t5,t5,s6
   11cf2:	1f42                	slli	t5,t5,0x30
   11cf4:	030f5f13          	srli	t5,t5,0x30
   11cf8:	8b4a                	mv	s6,s2
   11cfa:	73f90913          	addi	s2,s2,1855
   11cfe:	012f4ab3          	xor	s5,t5,s2
   11d02:	42812903          	lw	s2,1064(sp)
   11d06:	7fcb0b13          	addi	s6,s6,2044 # ffffffffffffe7fc <stderr@@GLIBC_2.25+0xfffffffffffe37bc>
   11d0a:	01590abb          	addw	s5,s2,s5
   11d0e:	18012903          	lw	s2,384(sp)
   11d12:	01e905bb          	addw	a1,s2,t5
   11d16:	03059913          	slli	s2,a1,0x30
   11d1a:	016f45b3          	xor	a1,t5,s6
   11d1e:	03059b13          	slli	s6,a1,0x30
   11d22:	03095913          	srli	s2,s2,0x30
   11d26:	030b5b13          	srli	s6,s6,0x30
   11d2a:	eb5a                	sd	s6,400(sp)
   11d2c:	eeca                	sd	s2,344(sp)
   11d2e:	8b4a                	mv	s6,s2
   11d30:	5906                	lw	s2,96(sp)
   11d32:	75e9                	lui	a1,0xffffa
   11d34:	012b0b3b          	addw	s6,s6,s2
   11d38:	45611823          	sh	s6,1104(sp)
   11d3c:	36012903          	lw	s2,864(sp)
   11d40:	14012b03          	lw	s6,320(sp)
   11d44:	032b093b          	mulw	s2,s6,s2
   11d48:	5b26                	lw	s6,104(sp)
   11d4a:	016f8fbb          	addw	t6,t6,s6
   11d4e:	1fc2                	slli	t6,t6,0x30
   11d50:	030fdf93          	srli	t6,t6,0x30
   11d54:	01fe4e33          	xor	t3,t3,t6
   11d58:	6cb58b1b          	addiw	s6,a1,1739
   11d5c:	016e0b3b          	addw	s6,t3,s6
   11d60:	29612423          	sw	s6,648(sp)
   11d64:	2c812b03          	lw	s6,712(sp)
   11d68:	65b6                	ld	a1,328(sp)
   11d6a:	1942                	slli	s2,s2,0x30
   11d6c:	036c8cbb          	mulw	s9,s9,s6
   11d70:	03095913          	srli	s2,s2,0x30
   11d74:	6b09                	lui	s6,0x2
   11d76:	0125c5b3          	xor	a1,a1,s2
   11d7a:	39cb0b1b          	addiw	s6,s6,924
   11d7e:	2b813783          	ld	a5,696(sp)
   11d82:	01658b3b          	addw	s6,a1,s6
   11d86:	1b42                	slli	s6,s6,0x30
   11d88:	030b5b13          	srli	s6,s6,0x30
   11d8c:	35613023          	sd	s6,832(sp)
   11d90:	00fb4b33          	xor	s6,s6,a5
   11d94:	56013783          	ld	a5,1376(sp)
   11d98:	8dbd                	xor	a1,a1,a5
   11d9a:	36812783          	lw	a5,872(sp)
   11d9e:	9dbd                	addw	a1,a1,a5
   11da0:	016585bb          	addw	a1,a1,s6
   11da4:	15c2                	slli	a1,a1,0x30
   11da6:	91c1                	srli	a1,a1,0x30
   11da8:	34b13823          	sd	a1,848(sp)
   11dac:	458a                	lw	a1,128(sp)
   11dae:	02e5873b          	mulw	a4,a1,a4
   11db2:	019dc5b3          	xor	a1,s11,s9
   11db6:	48813d83          	ld	s11,1160(sp)
   11dba:	15c2                	slli	a1,a1,0x30
   11dbc:	91c1                	srli	a1,a1,0x30
   11dbe:	01b5ccb3          	xor	s9,a1,s11
   11dc2:	e166                	sd	s9,128(sp)
   11dc4:	1c812c83          	lw	s9,456(sp)
   11dc8:	6d92                	ld	s11,256(sp)
   11dca:	00bc85bb          	addw	a1,s9,a1
   11dce:	6caa                	ld	s9,136(sp)
   11dd0:	15c2                	slli	a1,a1,0x30
   11dd2:	91c1                	srli	a1,a1,0x30
   11dd4:	00bcccb3          	xor	s9,s9,a1
   11dd8:	018ccc33          	xor	s8,s9,s8
   11ddc:	030c1c93          	slli	s9,s8,0x30
   11de0:	7c61                	lui	s8,0xffff8
   11de2:	50dc0793          	addi	a5,s8,1293 # ffffffffffff850d <stderr@@GLIBC_2.25+0xfffffffffffdd4cd>
   11de6:	8dbd                	xor	a1,a1,a5
   11de8:	41812783          	lw	a5,1048(sp)
   11dec:	6c0d                	lui	s8,0x3
   11dee:	2c75                	addiw	s8,s8,29
   11df0:	03878c3b          	mulw	s8,a5,s8
   11df4:	57013783          	ld	a5,1392(sp)
   11df8:	030cdc93          	srli	s9,s9,0x30
   11dfc:	00bcc5b3          	xor	a1,s9,a1
   11e00:	00f94933          	xor	s2,s2,a5
   11e04:	28013783          	ld	a5,640(sp)
   11e08:	f866                	sd	s9,48(sp)
   11e0a:	7cc6                	ld	s9,112(sp)
   11e0c:	0127c933          	xor	s2,a5,s2
   11e10:	03059793          	slli	a5,a1,0x30
   11e14:	93c1                	srli	a5,a5,0x30
   11e16:	f3be                	sd	a5,480(sp)
   11e18:	34013583          	ld	a1,832(sp)
   11e1c:	35013783          	ld	a5,848(sp)
   11e20:	1942                	slli	s2,s2,0x30
   11e22:	03095913          	srli	s2,s2,0x30
   11e26:	8dbd                	xor	a1,a1,a5
   11e28:	36b13023          	sd	a1,864(sp)
   11e2c:	039385bb          	mulw	a1,t2,s9
   11e30:	7396                	ld	t2,352(sp)
   11e32:	37213423          	sd	s2,872(sp)
   11e36:	46812783          	lw	a5,1128(sp)
   11e3a:	0183cc33          	xor	s8,t2,s8
   11e3e:	030c1913          	slli	s2,s8,0x30
   11e42:	7c62                	ld	s8,56(sp)
   11e44:	29012383          	lw	t2,656(sp)
   11e48:	03095913          	srli	s2,s2,0x30
   11e4c:	1742                	slli	a4,a4,0x30
   11e4e:	00bc45b3          	xor	a1,s8,a1
   11e52:	01c585bb          	addw	a1,a1,t3
   11e56:	8da1                	xor	a1,a1,s0
   11e58:	7e66                	ld	t3,120(sp)
   11e5a:	15c2                	slli	a1,a1,0x30
   11e5c:	91c1                	srli	a1,a1,0x30
   11e5e:	01c5ce33          	xor	t3,a1,t3
   11e62:	e7f2                	sd	t3,456(sp)
   11e64:	7e69                	lui	t3,0xffffa
   11e66:	539e0e1b          	addiw	t3,t3,1337
   11e6a:	03cd8e3b          	mulw	t3,s11,t3
   11e6e:	012383bb          	addw	t2,t2,s2
   11e72:	13c2                	slli	t2,t2,0x30
   11e74:	0303d393          	srli	t2,t2,0x30
   11e78:	e29e                	sd	t2,320(sp)
   11e7a:	012603bb          	addw	t2,a2,s2
   11e7e:	56712023          	sw	t2,1376(sp)
   11e82:	1d812383          	lw	t2,472(sp)
   11e86:	9341                	srli	a4,a4,0x30
   11e88:	027783bb          	mulw	t2,a5,t2
   11e8c:	2bc12023          	sw	t3,672(sp)
   11e90:	4e66                	lw	t3,88(sp)
   11e92:	29812783          	lw	a5,664(sp)
   11e96:	02fe0c3b          	mulw	s8,t3,a5
   11e9a:	39012783          	lw	a5,912(sp)
   11e9e:	6e1d                	lui	t3,0x7
   11ea0:	4d9e0e1b          	addiw	t3,t3,1241
   11ea4:	13c2                	slli	t2,t2,0x30
   11ea6:	0303d393          	srli	t2,t2,0x30
   11eaa:	018acc33          	xor	s8,s5,s8
   11eae:	20012a83          	lw	s5,512(sp)
   11eb2:	03cc8e3b          	mulw	t3,s9,t3
   11eb6:	02fa8abb          	mulw	s5,s5,a5
   11eba:	1e42                	slli	t3,t3,0x30
   11ebc:	030e5e13          	srli	t3,t3,0x30
   11ec0:	59815783          	lhu	a5,1432(sp)
   11ec4:	43512423          	sw	s5,1064(sp)
   11ec8:	7aba                	ld	s5,424(sp)
   11eca:	0266063b          	mulw	a2,a2,t1
   11ece:	01cacab3          	xor	s5,s5,t3
   11ed2:	01cd0e3b          	addw	t3,s10,t3
   11ed6:	01cacd33          	xor	s10,s5,t3
   11eda:	57a13823          	sd	s10,1392(sp)
   11ede:	6d0d                	lui	s10,0x3
   11ee0:	00baccb3          	xor	s9,s5,a1
   11ee4:	e9bd0d13          	addi	s10,s10,-357 # 2e9b <fprintf@plt-0xd535>
   11ee8:	01accd33          	xor	s10,s9,s10
   11eec:	59a13023          	sd	s10,1408(sp)
   11ef0:	23012d03          	lw	s10,560(sp)
   11ef4:	6a9d                	lui	s5,0x7
   11ef6:	00c34633          	xor	a2,t1,a2
   11efa:	037d0bbb          	mulw	s7,s10,s7
   11efe:	3c012d03          	lw	s10,960(sp)
   11f02:	1642                	slli	a2,a2,0x30
   11f04:	9241                	srli	a2,a2,0x30
   11f06:	03a484bb          	mulw	s1,s1,s10
   11f0a:	22012d03          	lw	s10,544(sp)
   11f0e:	68912423          	sw	s1,1672(sp)
   11f12:	030b9493          	slli	s1,s7,0x30
   11f16:	2d012b83          	lw	s7,720(sp)
   11f1a:	90c1                	srli	s1,s1,0x30
   11f1c:	eda6                	sd	s1,216(sp)
   11f1e:	037888bb          	mulw	a7,a7,s7
   11f22:	37812483          	lw	s1,888(sp)
   11f26:	9d2a8b9b          	addiw	s7,s5,-1582
   11f2a:	029b8e3b          	mulw	t3,s7,s1
   11f2e:	011548b3          	xor	a7,a0,a7
   11f32:	03089a93          	slli	s5,a7,0x30
   11f36:	78fe                	ld	a7,504(sp)
   11f38:	74aa                	ld	s1,168(sp)
   11f3a:	030ada93          	srli	s5,s5,0x30
   11f3e:	011ac5b3          	xor	a1,s5,a7
   11f42:	00b54bb3          	xor	s7,a0,a1
   11f46:	8cad                	xor	s1,s1,a1
   11f48:	21713023          	sd	s7,512(sp)
   11f4c:	00149b9b          	slliw	s7,s1,0x1
   11f50:	20812883          	lw	a7,520(sp)
   11f54:	51712c23          	sw	s7,1304(sp)
   11f58:	2e812b83          	lw	s7,744(sp)
   11f5c:	00fe4e33          	xor	t3,t3,a5
   11f60:	31013783          	ld	a5,784(sp)
   11f64:	037885bb          	mulw	a1,a7,s7
   11f68:	030e1893          	slli	a7,t3,0x30
   11f6c:	0308d893          	srli	a7,a7,0x30
   11f70:	8bc6                	mv	s7,a7
   11f72:	78d2                	ld	a7,304(sp)
   11f74:	40913c23          	sd	s1,1048(sp)
   11f78:	74f2                	ld	s1,312(sp)
   11f7a:	0178c8b3          	xor	a7,a7,s7
   11f7e:	0117c8b3          	xor	a7,a5,a7
   11f82:	0114c4b3          	xor	s1,s1,a7
   11f86:	70913023          	sd	s1,1792(sp)
   11f8a:	33013483          	ld	s1,816(sp)
   11f8e:	49713423          	sd	s7,1160(sp)
   11f92:	32013b83          	ld	s7,800(sp)
   11f96:	33113423          	sd	a7,808(sp)
   11f9a:	0098c8b3          	xor	a7,a7,s1
   11f9e:	011bcbb3          	xor	s7,s7,a7
   11fa2:	e25e                	sd	s7,256(sp)
   11fa4:	21813483          	ld	s1,536(sp)
   11fa8:	15c2                	slli	a1,a1,0x30
   11faa:	21013b83          	ld	s7,528(sp)
   11fae:	91c1                	srli	a1,a1,0x30
   11fb0:	00b4c8b3          	xor	a7,s1,a1
   11fb4:	03a080bb          	mulw	ra,ra,s10
   11fb8:	33813e03          	ld	t3,824(sp)
   11fbc:	011bcd33          	xor	s10,s7,a7
   11fc0:	21a13823          	sd	s10,528(sp)
   11fc4:	7d4a                	ld	s10,176(sp)
   11fc6:	011e4e33          	xor	t3,t3,a7
   11fca:	84ee                	mv	s1,s11
   11fcc:	01cd0bbb          	addw	s7,s10,t3
   11fd0:	29711023          	sh	s7,640(sp)
   11fd4:	01cd4bb3          	xor	s7,s10,t3
   11fd8:	4b012d03          	lw	s10,1200(sp)
   11fdc:	11812e03          	lw	t3,280(sp)
   11fe0:	fc2e                	sd	a1,56(sp)
   11fe2:	02ad0d3b          	mulw	s10,s10,a0
   11fe6:	26012e83          	lw	t4,608(sp)
   11fea:	59713c23          	sd	s7,1432(sp)
   11fee:	13a12823          	sw	s10,304(sp)
   11ff2:	03009d13          	slli	s10,ra,0x30
   11ff6:	70f9                	lui	ra,0xffffe
   11ff8:	030d5d13          	srli	s10,s10,0x30
   11ffc:	a7a0809b          	addiw	ra,ra,-1414
   12000:	001d00bb          	addw	ra,s10,ra
   12004:	5a112023          	sw	ra,1440(sp)
   12008:	40a6                	lw	ra,72(sp)
   1200a:	0323033b          	mulw	t1,t1,s2
   1200e:	03c08e3b          	mulw	t3,ra,t3
   12012:	56812083          	lw	ra,1384(sp)
   12016:	1342                	slli	t1,t1,0x30
   12018:	03035313          	srli	t1,t1,0x30
   1201c:	03b0843b          	mulw	s0,ra,s11
   12020:	030e1593          	slli	a1,t3,0x30
   12024:	91c1                	srli	a1,a1,0x30
   12026:	6e32                	ld	t3,264(sp)
   12028:	6091                	lui	ra,0x4
   1202a:	93908093          	addi	ra,ra,-1735 # 3939 <fprintf@plt-0xca97>
   1202e:	00be4e33          	xor	t3,t3,a1
   12032:	001e40b3          	xor	ra,t3,ra
   12036:	4f812d83          	lw	s11,1272(sp)
   1203a:	6c113823          	sd	ra,1744(sp)
   1203e:	8c25                	xor	s0,s0,s1
   12040:	00b404bb          	addw	s1,s0,a1
   12044:	2a912423          	sw	s1,680(sp)
   12048:	26812483          	lw	s1,616(sp)
   1204c:	4c812083          	lw	ra,1224(sp)
   12050:	2cb13423          	sd	a1,712(sp)
   12054:	029e8ebb          	mulw	t4,t4,s1
   12058:	021d80bb          	mulw	ra,s11,ra
   1205c:	030e9493          	slli	s1,t4,0x30
   12060:	3c812e83          	lw	t4,968(sp)
   12064:	90c1                	srli	s1,s1,0x30
   12066:	26913423          	sd	s1,616(sp)
   1206a:	009e8ebb          	addw	t4,t4,s1
   1206e:	1ec2                	slli	t4,t4,0x30
   12070:	030ede93          	srli	t4,t4,0x30
   12074:	47d13423          	sd	t4,1128(sp)
   12078:	4ea2                	lw	t4,8(sp)
   1207a:	10c2                	slli	ra,ra,0x30
   1207c:	0300d093          	srli	ra,ra,0x30
   12080:	025e82bb          	mulw	t0,t4,t0
   12084:	7e96                	ld	t4,352(sp)
   12086:	0018083b          	addw	a6,a6,ra
   1208a:	0140c0b3          	xor	ra,ra,s4
   1208e:	28113823          	sd	ra,656(sp)
   12092:	00cec0b3          	xor	ra,t4,a2
   12096:	17012e83          	lw	t4,368(sp)
   1209a:	01d080bb          	addw	ra,ra,t4
   1209e:	6e96                	ld	t4,320(sp)
   120a0:	10c2                	slli	ra,ra,0x30
   120a2:	0300d093          	srli	ra,ra,0x30
   120a6:	00ceceb3          	xor	t4,t4,a2
   120aa:	3dd13423          	sd	t4,968(sp)
   120ae:	01d0ceb3          	xor	t4,ra,t4
   120b2:	57d13423          	sd	t4,1384(sp)
   120b6:	4e86                	lw	t4,64(sp)
   120b8:	34812b83          	lw	s7,840(sp)
   120bc:	12c2                	slli	t0,t0,0x30
   120be:	0302d293          	srli	t0,t0,0x30
   120c2:	037e8ebb          	mulw	t4,t4,s7
   120c6:	4f012b83          	lw	s7,1264(sp)
   120ca:	0142c4b3          	xor	s1,t0,s4
   120ce:	53015783          	lhu	a5,1328(sp)
   120d2:	005b843b          	addw	s0,s7,t0
   120d6:	27812b83          	lw	s7,632(sp)
   120da:	1442                	slli	s0,s0,0x30
   120dc:	9041                	srli	s0,s0,0x30
   120de:	01748bbb          	addw	s7,s1,s7
   120e2:	1bc2                	slli	s7,s7,0x30
   120e4:	030bdb93          	srli	s7,s7,0x30
   120e8:	00f44633          	xor	a2,s0,a5
   120ec:	0176063b          	addw	a2,a2,s7
   120f0:	64c12823          	sw	a2,1616(sp)
   120f4:	566e                	lw	a2,248(sp)
   120f6:	1d012783          	lw	a5,464(sp)
   120fa:	58813d83          	ld	s11,1416(sp)
   120fe:	005602bb          	addw	t0,a2,t0
   12102:	2c012603          	lw	a2,704(sp)
   12106:	02f6063b          	mulw	a2,a2,a5
   1210a:	35812783          	lw	a5,856(sp)
   1210e:	00fe8ebb          	addw	t4,t4,a5
   12112:	54012783          	lw	a5,1344(sp)
   12116:	1ec2                	slli	t4,t4,0x30
   12118:	030ede93          	srli	t4,t4,0x30
   1211c:	01d787bb          	addw	a5,a5,t4
   12120:	66f12823          	sw	a5,1648(sp)
   12124:	01bec7b3          	xor	a5,t4,s11
   12128:	50013d83          	ld	s11,1280(sp)
   1212c:	1642                	slli	a2,a2,0x30
   1212e:	9241                	srli	a2,a2,0x30
   12130:	005dc2b3          	xor	t0,s11,t0
   12134:	0102c2b3          	xor	t0,t0,a6
   12138:	03029813          	slli	a6,t0,0x30
   1213c:	42ca                	lw	t0,144(sp)
   1213e:	03085813          	srli	a6,a6,0x30
   12142:	7dc2                	ld	s11,48(sp)
   12144:	29013c23          	sd	a6,664(sp)
   12148:	6805                	lui	a6,0x1
   1214a:	025702bb          	mulw	t0,a4,t0
   1214e:	4368081b          	addiw	a6,a6,1078
   12152:	00c8083b          	addw	a6,a6,a2
   12156:	010dc833          	xor	a6,s11,a6
   1215a:	1842                	slli	a6,a6,0x30
   1215c:	03085813          	srli	a6,a6,0x30
   12160:	66f13c23          	sd	a5,1656(sp)
   12164:	f4c2                	sd	a6,104(sp)
   12166:	53813783          	ld	a5,1336(sp)
   1216a:	1d812803          	lw	a6,472(sp)
   1216e:	12c2                	slli	t0,t0,0x30
   12170:	8c3d                	xor	s0,s0,a5
   12172:	00c8083b          	addw	a6,a6,a2
   12176:	01074833          	xor	a6,a4,a6
   1217a:	1442                	slli	s0,s0,0x30
   1217c:	9041                	srli	s0,s0,0x30
   1217e:	1842                	slli	a6,a6,0x30
   12180:	3e812783          	lw	a5,1000(sp)
   12184:	22813823          	sd	s0,560(sp)
   12188:	03085813          	srli	a6,a6,0x30
   1218c:	37012403          	lw	s0,880(sp)
   12190:	0302d293          	srli	t0,t0,0x30
   12194:	00564633          	xor	a2,a2,t0
   12198:	0103c5b3          	xor	a1,t2,a6
   1219c:	f72e                	sd	a1,424(sp)
   1219e:	01064833          	xor	a6,a2,a6
   121a2:	65aa                	ld	a1,136(sp)
   121a4:	02f4043b          	mulw	s0,s0,a5
   121a8:	4f013823          	sd	a6,1264(sp)
   121ac:	781e                	ld	a6,480(sp)
   121ae:	01b282bb          	addw	t0,t0,s11
   121b2:	8db1                	xor	a1,a1,a2
   121b4:	12c2                	slli	t0,t0,0x30
   121b6:	0105c833          	xor	a6,a1,a6
   121ba:	0302d293          	srli	t0,t0,0x30
   121be:	3e513c23          	sd	t0,1016(sp)
   121c2:	010282bb          	addw	t0,t0,a6
   121c6:	3eb13423          	sd	a1,1000(sp)
   121ca:	ebc2                	sd	a6,464(sp)
   121cc:	5a511423          	sh	t0,1448(sp)
   121d0:	17812283          	lw	t0,376(sp)
   121d4:	18812803          	lw	a6,392(sp)
   121d8:	9f31                	addw	a4,a4,a2
   121da:	6656                	ld	a2,336(sp)
   121dc:	0302883b          	mulw	a6,t0,a6
   121e0:	1442                	slli	s0,s0,0x30
   121e2:	9041                	srli	s0,s0,0x30
   121e4:	008642b3          	xor	t0,a2,s0
   121e8:	36513c23          	sd	t0,888(sp)
   121ec:	6285                	lui	t0,0x1
   121ee:	c7828293          	addi	t0,t0,-904 # c78 <fprintf@plt-0xf758>
   121f2:	00544633          	xor	a2,s0,t0
   121f6:	42013783          	ld	a5,1056(sp)
   121fa:	008982bb          	addw	t0,s3,s0
   121fe:	65f6                	ld	a1,344(sp)
   12200:	741a                	ld	s0,416(sp)
   12202:	6dc2                	ld	s11,16(sp)
   12204:	6c512c23          	sw	t0,1752(sp)
   12208:	03061293          	slli	t0,a2,0x30
   1220c:	6619                	lui	a2,0x6
   1220e:	0302d293          	srli	t0,t0,0x30
   12212:	5d36061b          	addiw	a2,a2,1491
   12216:	fd96                	sd	t0,248(sp)
   12218:	02c4063b          	mulw	a2,s0,a2
   1221c:	0057c2b3          	xor	t0,a5,t0
   12220:	0105c833          	xor	a6,a1,a6
   12224:	72513823          	sd	t0,1840(sp)
   12228:	01b8083b          	addw	a6,a6,s11
   1222c:	5286                	lw	t0,96(sp)
   1222e:	1842                	slli	a6,a6,0x30
   12230:	03085813          	srli	a6,a6,0x30
   12234:	e642                	sd	a6,264(sp)
   12236:	0102883b          	addw	a6,t0,a6
   1223a:	19012283          	lw	t0,400(sp)
   1223e:	1842                	slli	a6,a6,0x30
   12240:	03085813          	srli	a6,a6,0x30
   12244:	e742                	sd	a6,392(sp)
   12246:	0102883b          	addw	a6,t0,a6
   1224a:	1842                	slli	a6,a6,0x30
   1224c:	03085813          	srli	a6,a6,0x30
   12250:	11012283          	lw	t0,272(sp)
   12254:	e4c2                	sd	a6,72(sp)
   12256:	1642                	slli	a2,a2,0x30
   12258:	2a012803          	lw	a6,672(sp)
   1225c:	9241                	srli	a2,a2,0x30
   1225e:	00cfcfb3          	xor	t6,t6,a2
   12262:	01f6cfb3          	xor	t6,a3,t6
   12266:	0258083b          	mulw	a6,a6,t0
   1226a:	87fe                	mv	a5,t6
   1226c:	7fda                	ld	t6,432(sp)
   1226e:	2c812283          	lw	t0,712(sp)
   12272:	2cf13023          	sd	a5,704(sp)
   12276:	00ffcfb3          	xor	t6,t6,a5
   1227a:	55f13023          	sd	t6,1344(sp)
   1227e:	7ff5                	lui	t6,0xffffd
   12280:	8fff8f9b          	addiw	t6,t6,-1793
   12284:	63013783          	ld	a5,1584(sp)
   12288:	03f989bb          	mulw	s3,s3,t6
   1228c:	11812f83          	lw	t6,280(sp)
   12290:	1842                	slli	a6,a6,0x30
   12292:	03085813          	srli	a6,a6,0x30
   12296:	010f8fbb          	addw	t6,t6,a6
   1229a:	01c8083b          	addw	a6,a6,t3
   1229e:	7592                	ld	a1,288(sp)
   122a0:	005f8fbb          	addw	t6,t6,t0
   122a4:	03081e13          	slli	t3,a6,0x30
   122a8:	38012283          	lw	t0,896(sp)
   122ac:	030e5e13          	srli	t3,t3,0x30
   122b0:	1fc2                	slli	t6,t6,0x30
   122b2:	030fdf93          	srli	t6,t6,0x30
   122b6:	eff2                	sd	t3,472(sp)
   122b8:	00fe4e33          	xor	t3,t3,a5
   122bc:	01f5c833          	xor	a6,a1,t6
   122c0:	21c13423          	sd	t3,520(sp)
   122c4:	37813e03          	ld	t3,888(sp)
   122c8:	2d013823          	sd	a6,720(sp)
   122cc:	010282bb          	addw	t0,t0,a6
   122d0:	03099813          	slli	a6,s3,0x30
   122d4:	03085813          	srli	a6,a6,0x30
   122d8:	010e4e33          	xor	t3,t3,a6
   122dc:	39013023          	sd	a6,896(sp)
   122e0:	4bc13823          	sd	t3,1200(sp)
   122e4:	38813783          	ld	a5,904(sp)
   122e8:	01c8083b          	addw	a6,a6,t3
   122ec:	3c613023          	sd	t1,960(sp)
   122f0:	0107c833          	xor	a6,a5,a6
   122f4:	03081993          	slli	s3,a6,0x30
   122f8:	0309d993          	srli	s3,s3,0x30
   122fc:	53313c23          	sd	s3,1336(sp)
   12300:	884e                	mv	a6,s3
   12302:	79e5                	lui	s3,0xffff9
   12304:	19f1                	addi	s3,s3,-4
   12306:	63812783          	lw	a5,1592(sp)
   1230a:	01384833          	xor	a6,a6,s3
   1230e:	03081993          	slli	s3,a6,0x30
   12312:	0309d993          	srli	s3,s3,0x30
   12316:	01f78e3b          	addw	t3,a5,t6
   1231a:	39313823          	sd	s3,912(sp)
   1231e:	77b6                	ld	a5,360(sp)
   12320:	498a                	lw	s3,128(sp)
   12322:	75c6                	ld	a1,112(sp)
   12324:	027983bb          	mulw	t2,s3,t2
   12328:	0067c9b3          	xor	s3,a5,t1
   1232c:	0130c0b3          	xor	ra,ra,s3
   12330:	1d30809b          	addiw	ra,ra,467
   12334:	10c2                	slli	ra,ra,0x30
   12336:	0300d093          	srli	ra,ra,0x30
   1233a:	8786                	mv	a5,ra
   1233c:	530a                	lw	t1,160(sp)
   1233e:	40ea                	lw	ra,152(sp)
   12340:	ea4e                	sd	s3,272(sp)
   12342:	0260883b          	mulw	a6,ra,t1
   12346:	40ca                	lw	ra,144(sp)
   12348:	001383bb          	addw	t2,t2,ra
   1234c:	00e3c733          	xor	a4,t2,a4
   12350:	03071393          	slli	t2,a4,0x30
   12354:	7761                	lui	a4,0xffff8
   12356:	0303d393          	srli	t2,t2,0x30
   1235a:	50d70713          	addi	a4,a4,1293 # ffffffffffff850d <stderr@@GLIBC_2.25+0xfffffffffffdd4cd>
   1235e:	00e3c733          	xor	a4,t2,a4
   12362:	34713c23          	sd	t2,856(sp)
   12366:	58e13423          	sd	a4,1416(sp)
   1236a:	2b012383          	lw	t2,688(sp)
   1236e:	42812703          	lw	a4,1064(sp)
   12372:	03bc00bb          	mulw	ra,s8,s11
   12376:	19812c03          	lw	s8,408(sp)
   1237a:	0277073b          	mulw	a4,a4,t2
   1237e:	2d813383          	ld	t2,728(sp)
   12382:	10c2                	slli	ra,ra,0x30
   12384:	0300d093          	srli	ra,ra,0x30
   12388:	32e12c23          	sw	a4,824(sp)
   1238c:	0103c733          	xor	a4,t2,a6
   12390:	4ee13c23          	sd	a4,1272(sp)
   12394:	028c073b          	mulw	a4,s8,s0
   12398:	001f4c33          	xor	s8,t5,ra
   1239c:	47013f03          	ld	t5,1136(sp)
   123a0:	f2e2                	sd	s8,352(sp)
   123a2:	1e812c03          	lw	s8,488(sp)
   123a6:	01e0c833          	xor	a6,ra,t5
   123aa:	6f26                	ld	t5,72(sp)
   123ac:	010f4f33          	xor	t5,t5,a6
   123b0:	ef7a                	sd	t5,408(sp)
   123b2:	68812f03          	lw	t5,1672(sp)
   123b6:	8f2d                	xor	a4,a4,a1
   123b8:	1742                	slli	a4,a4,0x30
   123ba:	036f083b          	mulw	a6,t5,s6
   123be:	28812f03          	lw	t5,648(sp)
   123c2:	9341                	srli	a4,a4,0x30
   123c4:	8e39                	xor	a2,a2,a4
   123c6:	00ef0f3b          	addw	t5,t5,a4
   123ca:	4de12423          	sw	t5,1224(sp)
   123ce:	4b812f03          	lw	t5,1208(sp)
   123d2:	00cf0f3b          	addw	t5,t5,a2
   123d6:	027c043b          	mulw	s0,s8,t2
   123da:	03081393          	slli	t2,a6,0x30
   123de:	0303d393          	srli	t2,t2,0x30
   123e2:	007b0b3b          	addw	s6,s6,t2
   123e6:	53e12823          	sw	t5,1328(sp)
   123ea:	34713423          	sd	t2,840(sp)
   123ee:	75612c23          	sw	s6,1880(sp)
   123f2:	4b6e                	lw	s6,216(sp)
   123f4:	3d012c03          	lw	s8,976(sp)
   123f8:	5c015583          	lhu	a1,1472(sp)
   123fc:	038b03bb          	mulw	t2,s6,s8
   12400:	2e012b03          	lw	s6,736(sp)
   12404:	4e813c03          	ld	s8,1256(sp)
   12408:	0164073b          	addw	a4,s0,s6
   1240c:	1742                	slli	a4,a4,0x30
   1240e:	9341                	srli	a4,a4,0x30
   12410:	01874c33          	xor	s8,a4,s8
   12414:	51813023          	sd	s8,1280(sp)
   12418:	4d013c03          	ld	s8,1232(sp)
   1241c:	7b7e                	ld	s6,504(sp)
   1241e:	01874733          	xor	a4,a4,s8
   12422:	00a74633          	xor	a2,a4,a0
   12426:	50813c03          	ld	s8,1288(sp)
   1242a:	00cb4b33          	xor	s6,s6,a2
   1242e:	e15a                	sd	s6,128(sp)
   12430:	20013b03          	ld	s6,512(sp)
   12434:	01874633          	xor	a2,a4,s8
   12438:	00cb4c33          	xor	s8,s6,a2
   1243c:	6b21                	lui	s6,0x8
   1243e:	aefb0f13          	addi	t5,s6,-1297 # 7aef <fprintf@plt-0x88e1>
   12442:	01ec4633          	xor	a2,s8,t5
   12446:	43813023          	sd	s8,1056(sp)
   1244a:	5b813c03          	ld	s8,1464(sp)
   1244e:	03968f3b          	mulw	t5,a3,s9
   12452:	24013c83          	ld	s9,576(sp)
   12456:	007c43b3          	xor	t2,s8,t2
   1245a:	13c2                	slli	t2,t2,0x30
   1245c:	0303d393          	srli	t2,t2,0x30
   12460:	007cccb3          	xor	s9,s9,t2
   12464:	e466                	sd	s9,8(sp)
   12466:	00b3ccb3          	xor	s9,t2,a1
   1246a:	63913823          	sd	s9,1584(sp)
   1246e:	03061c93          	slli	s9,a2,0x30
   12472:	030cdc93          	srli	s9,s9,0x30
   12476:	f7e6                	sd	s9,488(sp)
   12478:	5e813c83          	ld	s9,1512(sp)
   1247c:	25013b03          	ld	s6,592(sp)
   12480:	28015583          	lhu	a1,640(sp)
   12484:	0193c333          	xor	t1,t2,s9
   12488:	006b4c33          	xor	s8,s6,t1
   1248c:	30812c83          	lw	s9,776(sp)
   12490:	63813c23          	sd	s8,1592(sp)
   12494:	22012c03          	lw	s8,544(sp)
   12498:	01e6cb33          	xor	s6,a3,t5
   1249c:	038c863b          	mulw	a2,s9,s8
   124a0:	13012c03          	lw	s8,304(sp)
   124a4:	52812c83          	lw	s9,1320(sp)
   124a8:	035c0c3b          	mulw	s8,s8,s5
   124ac:	1642                	slli	a2,a2,0x30
   124ae:	9241                	srli	a2,a2,0x30
   124b0:	00cc883b          	addw	a6,s9,a2
   124b4:	21012c83          	lw	s9,528(sp)
   124b8:	52012a83          	lw	s5,1312(sp)
   124bc:	00cc86bb          	addw	a3,s9,a2
   124c0:	55812c83          	lw	s9,1368(sp)
   124c4:	8ead                	xor	a3,a3,a1
   124c6:	51812423          	sw	s8,1288(sp)
   124ca:	03081c13          	slli	s8,a6,0x30
   124ce:	03ac883b          	mulw	a6,s9,s10
   124d2:	55e2                	lw	a1,56(sp)
   124d4:	59012c83          	lw	s9,1424(sp)
   124d8:	030c5c13          	srli	s8,s8,0x30
   124dc:	02ba85bb          	mulw	a1,s5,a1
   124e0:	21812a83          	lw	s5,536(sp)
   124e4:	035c833b          	mulw	t1,s9,s5
   124e8:	7aca                	ld	s5,176(sp)
   124ea:	03081c93          	slli	s9,a6,0x30
   124ee:	030cdc93          	srli	s9,s9,0x30
   124f2:	019a883b          	addw	a6,s5,s9
   124f6:	43913423          	sd	s9,1064(sp)
   124fa:	03081c93          	slli	s9,a6,0x30
   124fe:	030cdc93          	srli	s9,s9,0x30
   12502:	4f06                	lw	t5,64(sp)
   12504:	ed66                	sd	s9,152(sp)
   12506:	3e012c83          	lw	s9,992(sp)
   1250a:	15c2                	slli	a1,a1,0x30
   1250c:	91c1                	srli	a1,a1,0x30
   1250e:	039f083b          	mulw	a6,t5,s9
   12512:	00c3063b          	addw	a2,t1,a2
   12516:	8e2d                	xor	a2,a2,a1
   12518:	00cc4633          	xor	a2,s8,a2
   1251c:	03061f13          	slli	t5,a2,0x30
   12520:	030f5f13          	srli	t5,t5,0x30
   12524:	fffa                	sd	t5,504(sp)
   12526:	64812f03          	lw	t5,1608(sp)
   1252a:	7cf9                	lui	s9,0xffffe
   1252c:	694c8c9b          	addiw	s9,s9,1684
   12530:	03ec863b          	mulw	a2,s9,t5
   12534:	40013d83          	ld	s11,1024(sp)
   12538:	1842                	slli	a6,a6,0x30
   1253a:	03085813          	srli	a6,a6,0x30
   1253e:	7ce9                	lui	s9,0xffffa
   12540:	010dcf33          	xor	t5,s11,a6
   12544:	a16c8c93          	addi	s9,s9,-1514 # ffffffffffff9a16 <stderr@@GLIBC_2.25+0xfffffffffffde9d6>
   12548:	019f4cb3          	xor	s9,t5,s9
   1254c:	6305                	lui	t1,0x1
   1254e:	1cc2                	slli	s9,s9,0x30
   12550:	030cdc93          	srli	s9,s9,0x30
   12554:	69a3041b          	addiw	s0,t1,1690
   12558:	008c833b          	addw	t1,s9,s0
   1255c:	03031993          	slli	s3,t1,0x30
   12560:	6315                	lui	t1,0x5
   12562:	0309d993          	srli	s3,s3,0x30
   12566:	d0b30413          	addi	s0,t1,-757 # 4d0b <fprintf@plt-0xb6c5>
   1256a:	1642                	slli	a2,a2,0x30
   1256c:	0089c433          	xor	s0,s3,s0
   12570:	9241                	srli	a2,a2,0x30
   12572:	631d                	lui	t1,0x7
   12574:	6a813823          	sd	s0,1712(sp)
   12578:	005642b3          	xor	t0,a2,t0
   1257c:	4c03041b          	addiw	s0,t1,1216
   12580:	2d013303          	ld	t1,720(sp)
   12584:	12c2                	slli	t0,t0,0x30
   12586:	0302d293          	srli	t0,t0,0x30
   1258a:	0289093b          	mulw	s2,s2,s0
   1258e:	2e513023          	sd	t0,736(sp)
   12592:	5442                	lw	s0,48(sp)
   12594:	006642b3          	xor	t0,a2,t1
   12598:	464a                	lw	a2,144(sp)
   1259a:	f14e                	sd	s3,160(sp)
   1259c:	46513823          	sd	t0,1136(sp)
   125a0:	3cf13823          	sd	a5,976(sp)
   125a4:	031a88bb          	mulw	a7,s5,a7
   125a8:	57812a83          	lw	s5,1400(sp)
   125ac:	00f9093b          	addw	s2,s2,a5
   125b0:	1942                	slli	s2,s2,0x30
   125b2:	03095913          	srli	s2,s2,0x30
   125b6:	fa4a                	sd	s2,304(sp)
   125b8:	7975                	lui	s2,0xffffd
   125ba:	3d690913          	addi	s2,s2,982 # ffffffffffffd3d6 <stderr@@GLIBC_2.25+0xfffffffffffe2396>
   125be:	0286063b          	mulw	a2,a2,s0
   125c2:	18c2                	slli	a7,a7,0x30
   125c4:	0308d893          	srli	a7,a7,0x30
   125c8:	00d8c6b3          	xor	a3,a7,a3
   125cc:	00dc46b3          	xor	a3,s8,a3
   125d0:	011585bb          	addw	a1,a1,a7
   125d4:	0125c933          	xor	s2,a1,s2
   125d8:	53213023          	sd	s2,1312(sp)
   125dc:	6915                	lui	s2,0x5
   125de:	a739091b          	addiw	s2,s2,-1421
   125e2:	c0b2                	sw	a2,64(sp)
   125e4:	03aa863b          	mulw	a2,s5,s10
   125e8:	03069a93          	slli	s5,a3,0x30
   125ec:	76f5                	lui	a3,0xffffd
   125ee:	030ada93          	srli	s5,s5,0x30
   125f2:	88b6                	mv	a7,a3
   125f4:	3d66869b          	addiw	a3,a3,982
   125f8:	00da86bb          	addw	a3,s5,a3
   125fc:	5cd11023          	sh	a3,1472(sp)
   12600:	2a812683          	lw	a3,680(sp)
   12604:	29c8889b          	addiw	a7,a7,668
   12608:	00cd4633          	xor	a2,s10,a2
   1260c:	0326843b          	mulw	s0,a3,s2
   12610:	03061913          	slli	s2,a2,0x30
   12614:	03095913          	srli	s2,s2,0x30
   12618:	012ac6b3          	xor	a3,s5,s2
   1261c:	32812603          	lw	a2,808(sp)
   12620:	20d13823          	sd	a3,528(sp)
   12624:	44812683          	lw	a3,1096(sp)
   12628:	02c689bb          	mulw	s3,a3,a2
   1262c:	1d812683          	lw	a3,472(sp)
   12630:	03041593          	slli	a1,s0,0x30
   12634:	91c1                	srli	a1,a1,0x30
   12636:	9ead                	addw	a3,a3,a1
   12638:	16c2                	slli	a3,a3,0x30
   1263a:	92c1                	srli	a3,a3,0x30
   1263c:	01c5ce33          	xor	t3,a1,t3
   12640:	01c2ce33          	xor	t3,t0,t3
   12644:	4ad13c23          	sd	a3,1208(sp)
   12648:	011686bb          	addw	a3,a3,a7
   1264c:	16c2                	slli	a3,a3,0x30
   1264e:	030e1893          	slli	a7,t3,0x30
   12652:	92c1                	srli	a3,a3,0x30
   12654:	0308d893          	srli	a7,a7,0x30
   12658:	27012e03          	lw	t3,624(sp)
   1265c:	fc36                	sd	a3,56(sp)
   1265e:	2cb13c23          	sd	a1,728(sp)
   12662:	2f113423          	sd	a7,744(sp)
   12666:	26812883          	lw	a7,616(sp)
   1266a:	68015783          	lhu	a5,1664(sp)
   1266e:	27813283          	ld	t0,632(sp)
   12672:	03c886bb          	mulw	a3,a7,t3
   12676:	00f9c9b3          	xor	s3,s3,a5
   1267a:	03099e13          	slli	t3,s3,0x30
   1267e:	030e5e13          	srli	t3,t3,0x30
   12682:	78ce                	ld	a7,240(sp)
   12684:	e572                	sd	t3,136(sp)
   12686:	61812e03          	lw	t3,1560(sp)
   1268a:	5f015783          	lhu	a5,1520(sp)
   1268e:	031e033b          	mulw	t1,t3,a7
   12692:	29012e03          	lw	t3,656(sp)
   12696:	8ebd                	xor	a3,a3,a5
   12698:	16c2                	slli	a3,a3,0x30
   1269a:	92c1                	srli	a3,a3,0x30
   1269c:	45015783          	lhu	a5,1104(sp)
   126a0:	025e063b          	mulw	a2,t3,t0
   126a4:	25813e03          	ld	t3,600(sp)
   126a8:	006e4333          	xor	t1,t3,t1
   126ac:	03031e13          	slli	t3,t1,0x30
   126b0:	030e5e13          	srli	t3,t3,0x30
   126b4:	01c6c333          	xor	t1,a3,t3
   126b8:	859a                	mv	a1,t1
   126ba:	00b8c8b3          	xor	a7,a7,a1
   126be:	0116c6b3          	xor	a3,a3,a7
   126c2:	28d13423          	sd	a3,648(sp)
   126c6:	62012683          	lw	a3,1568(sp)
   126ca:	f346                	sd	a7,416(sp)
   126cc:	1642                	slli	a2,a2,0x30
   126ce:	011686bb          	addw	a3,a3,a7
   126d2:	64d12423          	sw	a3,1608(sp)
   126d6:	48c2                	lw	a7,16(sp)
   126d8:	15812683          	lw	a3,344(sp)
   126dc:	9241                	srli	a2,a2,0x30
   126de:	26b13c23          	sd	a1,632(sp)
   126e2:	02d885bb          	mulw	a1,a7,a3
   126e6:	00c486bb          	addw	a3,s1,a2
   126ea:	16c2                	slli	a3,a3,0x30
   126ec:	92c1                	srli	a3,a3,0x30
   126ee:	28d13823          	sd	a3,656(sp)
   126f2:	00dbc6b3          	xor	a3,s7,a3
   126f6:	01468a3b          	addw	s4,a3,s4
   126fa:	01764bb3          	xor	s7,a2,s7
   126fe:	23013603          	ld	a2,560(sp)
   12702:	1a42                	slli	s4,s4,0x30
   12704:	030a5a13          	srli	s4,s4,0x30
   12708:	2b413423          	sd	s4,680(sp)
   1270c:	01464a33          	xor	s4,a2,s4
   12710:	69413023          	sd	s4,1664(sp)
   12714:	8a32                	mv	s4,a2
   12716:	017a0a3b          	addw	s4,s4,s7
   1271a:	68e2                	ld	a7,24(sp)
   1271c:	69412823          	sw	s4,1680(sp)
   12720:	5a6a                	lw	s4,184(sp)
   12722:	15c2                	slli	a1,a1,0x30
   12724:	91c1                	srli	a1,a1,0x30
   12726:	031a063b          	mulw	a2,s4,a7
   1272a:	7a16                	ld	s4,352(sp)
   1272c:	2b713023          	sd	s7,672(sp)
   12730:	3d813303          	ld	t1,984(sp)
   12734:	0145c6b3          	xor	a3,a1,s4
   12738:	00f5ca33          	xor	s4,a1,a5
   1273c:	4d413823          	sd	s4,1232(sp)
   12740:	25c13c23          	sd	t3,600(sp)
   12744:	01c34e33          	xor	t3,t1,t3
   12748:	29c13023          	sd	t3,640(sp)
   1274c:	0116063b          	addw	a2,a2,a7
   12750:	03061a13          	slli	s4,a2,0x30
   12754:	6609                	lui	a2,0x2
   12756:	030a5a13          	srli	s4,s4,0x30
   1275a:	c1d6061b          	addiw	a2,a2,-995
   1275e:	00ca063b          	addw	a2,s4,a2
   12762:	025484bb          	mulw	s1,s1,t0
   12766:	78e9                	lui	a7,0xffffa
   12768:	03061b93          	slli	s7,a2,0x30
   1276c:	030bdb93          	srli	s7,s7,0x30
   12770:	fbe88613          	addi	a2,a7,-66 # ffffffffffff9fbe <stderr@@GLIBC_2.25+0xfffffffffffdef7e>
   12774:	00cbc633          	xor	a2,s7,a2
   12778:	1642                	slli	a2,a2,0x30
   1277a:	9241                	srli	a2,a2,0x30
   1277c:	8e32                	mv	t3,a2
   1277e:	7476061b          	addiw	a2,a2,1863
   12782:	1642                	slli	a2,a2,0x30
   12784:	9241                	srli	a2,a2,0x30
   12786:	85b2                	mv	a1,a2
   12788:	03dd8ebb          	mulw	t4,s11,t4
   1278c:	6615                	lui	a2,0x5
   1278e:	8432                	mv	s0,a2
   12790:	14c2                	slli	s1,s1,0x30
   12792:	0e360613          	addi	a2,a2,227 # 50e3 <fprintf@plt-0xb2ed>
   12796:	00ca4633          	xor	a2,s4,a2
   1279a:	90c1                	srli	s1,s1,0x30
   1279c:	20c13c23          	sd	a2,536(sp)
   127a0:	0092c633          	xor	a2,t0,s1
   127a4:	29813283          	ld	t0,664(sp)
   127a8:	e926                	sd	s1,144(sp)
   127aa:	89c6                	mv	s3,a7
   127ac:	00c2c4b3          	xor	s1,t0,a2
   127b0:	68913423          	sd	s1,1672(sp)
   127b4:	78488893          	addi	a7,a7,1924
   127b8:	7a440493          	addi	s1,s0,1956
   127bc:	6409                	lui	s0,0x2
   127be:	00be4633          	xor	a2,t3,a1
   127c2:	22813783          	ld	a5,552(sp)
   127c6:	011bc8b3          	xor	a7,s7,a7
   127ca:	d1c40413          	addi	s0,s0,-740 # 1d1c <fprintf@plt-0xe6b4>
   127ce:	22c13823          	sd	a2,560(sp)
   127d2:	63113023          	sd	a7,1568(sp)
   127d6:	008bc633          	xor	a2,s7,s0
   127da:	17812883          	lw	a7,376(sp)
   127de:	18012403          	lw	s0,384(sp)
   127e2:	22b13023          	sd	a1,544(sp)
   127e6:	030e9593          	slli	a1,t4,0x30
   127ea:	91c1                	srli	a1,a1,0x30
   127ec:	009a44b3          	xor	s1,s4,s1
   127f0:	8e3d                	xor	a2,a2,a5
   127f2:	60913c23          	sd	s1,1560(sp)
   127f6:	03061493          	slli	s1,a2,0x30
   127fa:	0288863b          	mulw	a2,a7,s0
   127fe:	00b848b3          	xor	a7,a6,a1
   12802:	019888bb          	addw	a7,a7,s9
   12806:	011cc8b3          	xor	a7,s9,a7
   1280a:	03089e93          	slli	t4,a7,0x30
   1280e:	030ede93          	srli	t4,t4,0x30
   12812:	5d012d83          	lw	s11,1488(sp)
   12816:	f976                	sd	t4,176(sp)
   12818:	23812e83          	lw	t4,568(sp)
   1281c:	7286                	ld	t0,96(sp)
   1281e:	90c1                	srli	s1,s1,0x30
   12820:	03dd843b          	mulw	s0,s11,t4
   12824:	4c013d83          	ld	s11,1216(sp)
   12828:	6eba                	ld	t4,392(sp)
   1282a:	24913023          	sd	s1,576(sp)
   1282e:	00cdc633          	xor	a2,s11,a2
   12832:	00c2c633          	xor	a2,t0,a2
   12836:	03061893          	slli	a7,a2,0x30
   1283a:	0308d893          	srli	a7,a7,0x30
   1283e:	011ec2b3          	xor	t0,t4,a7
   12842:	6efa                	ld	t4,408(sp)
   12844:	64012d83          	lw	s11,1600(sp)
   12848:	0083c3b3          	xor	t2,t2,s0
   1284c:	01d2ceb3          	xor	t4,t0,t4
   12850:	fef6                	sd	t4,376(sp)
   12852:	4ea6                	lw	t4,72(sp)
   12854:	46013403          	ld	s0,1120(sp)
   12858:	3d113c23          	sd	a7,984(sp)
   1285c:	005e863b          	addw	a2,t4,t0
   12860:	026d8ebb          	mulw	t4,s11,t1
   12864:	6a012d83          	lw	s11,1696(sp)
   12868:	03061893          	slli	a7,a2,0x30
   1286c:	13c2                	slli	t2,t2,0x30
   1286e:	0303d393          	srli	t2,t2,0x30
   12872:	f09e                	sd	t2,96(sp)
   12874:	33812383          	lw	t2,824(sp)
   12878:	0308d893          	srli	a7,a7,0x30
   1287c:	eec6                	sd	a7,344(sp)
   1287e:	45c13823          	sd	t3,1104(sp)
   12882:	028d863b          	mulw	a2,s11,s0
   12886:	65d12023          	sw	t4,1600(sp)
   1288a:	2b012e83          	lw	t4,688(sp)
   1288e:	45713423          	sd	s7,1096(sp)
   12892:	9cf6869b          	addiw	a3,a3,-1585
   12896:	03d388bb          	mulw	a7,t2,t4
   1289a:	41012383          	lw	t2,1040(sp)
   1289e:	03061e93          	slli	t4,a2,0x30
   128a2:	030ede93          	srli	t4,t4,0x30
   128a6:	01d3863b          	addw	a2,t2,t4
   128aa:	6a812383          	lw	t2,1704(sp)
   128ae:	4fd13423          	sd	t4,1256(sp)
   128b2:	0076063b          	addw	a2,a2,t2
   128b6:	6399                	lui	t2,0x6
   128b8:	879e                	mv	a5,t2
   128ba:	94538393          	addi	t2,t2,-1723 # 5945 <fprintf@plt-0xaa8b>
   128be:	007ec333          	xor	t1,t4,t2
   128c2:	03031493          	slli	s1,t1,0x30
   128c6:	03061393          	slli	t2,a2,0x30
   128ca:	0303d393          	srli	t2,t2,0x30
   128ce:	90c1                	srli	s1,s1,0x30
   128d0:	007ec333          	xor	t1,t4,t2
   128d4:	30913423          	sd	s1,776(sp)
   128d8:	ec1e                	sd	t2,24(sp)
   128da:	6e613023          	sd	t1,1760(sp)
   128de:	6d812303          	lw	t1,1752(sp)
   128e2:	6e85                	lui	t4,0x1
   128e4:	c78e839b          	addiw	t2,t4,-904
   128e8:	0273033b          	mulw	t1,t1,t2
   128ec:	03089393          	slli	t2,a7,0x30
   128f0:	0303d393          	srli	t2,t2,0x30
   128f4:	4f812603          	lw	a2,1272(sp)
   128f8:	32713c23          	sd	t2,824(sp)
   128fc:	1f012383          	lw	t2,496(sp)
   12900:	74ee                	ld	s1,248(sp)
   12902:	6e813d83          	ld	s11,1768(sp)
   12906:	7e66                	ld	t3,120(sp)
   12908:	027608bb          	mulw	a7,a2,t2
   1290c:	4b012383          	lw	t2,1200(sp)
   12910:	006dc333          	xor	t1,s11,t1
   12914:	51812d83          	lw	s11,1304(sp)
   12918:	00e888bb          	addw	a7,a7,a4
   1291c:	18c2                	slli	a7,a7,0x30
   1291e:	0308d893          	srli	a7,a7,0x30
   12922:	0274863b          	mulw	a2,s1,t2
   12926:	01174733          	xor	a4,a4,a7
   1292a:	73aa                	ld	t2,168(sp)
   1292c:	9d39                	addw	a0,a0,a4
   1292e:	1542                	slli	a0,a0,0x30
   12930:	0113c8b3          	xor	a7,t2,a7
   12934:	9141                	srli	a0,a0,0x30
   12936:	23113c23          	sd	a7,568(sp)
   1293a:	88aa                	mv	a7,a0
   1293c:	00ad853b          	addw	a0,s11,a0
   12940:	1542                	slli	a0,a0,0x30
   12942:	9141                	srli	a0,a0,0x30
   12944:	fbaa                	sd	a0,496(sp)
   12946:	41113823          	sd	a7,1040(sp)
   1294a:	8546                	mv	a0,a7
   1294c:	688a                	ld	a7,128(sp)
   1294e:	6f013d83          	ld	s11,1776(sp)
   12952:	01154533          	xor	a0,a0,a7
   12956:	f8aa                	sd	a0,112(sp)
   12958:	10812503          	lw	a0,264(sp)
   1295c:	02a080bb          	mulw	ra,ra,a0
   12960:	0066053b          	addw	a0,a2,t1
   12964:	9d25                	addw	a0,a0,s1
   12966:	1542                	slli	a0,a0,0x30
   12968:	9141                	srli	a0,a0,0x30
   1296a:	01b54633          	xor	a2,a0,s11
   1296e:	03061313          	slli	t1,a2,0x30
   12972:	03035313          	srli	t1,t1,0x30
   12976:	e61a                	sd	t1,264(sp)
   12978:	2c012303          	lw	t1,704(sp)
   1297c:	660d                	lui	a2,0x3
   1297e:	e9b6061b          	addiw	a2,a2,-357
   12982:	02c3063b          	mulw	a2,t1,a2
   12986:	0016c0b3          	xor	ra,a3,ra
   1298a:	03009b93          	slli	s7,ra,0x30
   1298e:	34812083          	lw	ra,840(sp)
   12992:	6309                	lui	t1,0x2
   12994:	39c3031b          	addiw	t1,t1,924
   12998:	4e012d83          	lw	s11,1248(sp)
   1299c:	030bdb93          	srli	s7,s7,0x30
   129a0:	026086bb          	mulw	a3,ra,t1
   129a4:	1c012083          	lw	ra,448(sp)
   129a8:	0016063b          	addw	a2,a2,ra
   129ac:	03061493          	slli	s1,a2,0x30
   129b0:	1c812083          	lw	ra,456(sp)
   129b4:	90c1                	srli	s1,s1,0x30
   129b6:	009e48b3          	xor	a7,t3,s1
   129ba:	009d863b          	addw	a2,s11,s1
   129be:	011080bb          	addw	ra,ra,a7
   129c2:	56111c23          	sh	ra,1400(sp)
   129c6:	03061093          	slli	ra,a2,0x30
   129ca:	0300d093          	srli	ra,ra,0x30
   129ce:	8d86                	mv	s11,ra
   129d0:	3e812603          	lw	a2,1000(sp)
   129d4:	35813083          	ld	ra,856(sp)
   129d8:	e346                	sd	a7,384(sp)
   129da:	03069393          	slli	t2,a3,0x30
   129de:	02c088bb          	mulw	a7,ra,a2
   129e2:	2b813603          	ld	a2,696(sp)
   129e6:	0303d393          	srli	t2,t2,0x30
   129ea:	34713c23          	sd	t2,856(sp)
   129ee:	007643b3          	xor	t2,a2,t2
   129f2:	3e913023          	sd	s1,992(sp)
   129f6:	fd1e                	sd	t2,184(sp)
   129f8:	36812303          	lw	t1,872(sp)
   129fc:	76ba                	ld	a3,424(sp)
   129fe:	1d812e03          	lw	t3,472(sp)
   12a02:	0063863b          	addw	a2,t2,t1
   12a06:	72c11423          	sh	a2,1832(sp)
   12a0a:	436e                	lw	t1,216(sp)
   12a0c:	5d812603          	lw	a2,1496(sp)
   12a10:	0116c8b3          	xor	a7,a3,a7
   12a14:	03089493          	slli	s1,a7,0x30
   12a18:	0266063b          	mulw	a2,a2,t1
   12a1c:	90c1                	srli	s1,s1,0x30
   12a1e:	1b098313          	addi	t1,s3,432 # ffffffffffff91b0 <stderr@@GLIBC_2.25+0xfffffffffffde170>
   12a22:	0064c6b3          	xor	a3,s1,t1
   12a26:	4f012303          	lw	t1,1264(sp)
   12a2a:	69a2                	ld	s3,8(sp)
   12a2c:	40913023          	sd	s1,1024(sp)
   12a30:	00d306bb          	addw	a3,t1,a3
   12a34:	03069393          	slli	t2,a3,0x30
   12a38:	0303d393          	srli	t2,t2,0x30
   12a3c:	72a78313          	addi	t1,a5,1834
   12a40:	ef1e                	sd	t2,408(sp)
   12a42:	7392                	ld	t2,288(sp)
   12a44:	00664633          	xor	a2,a2,t1
   12a48:	3f012303          	lw	t1,1008(sp)
   12a4c:	03c386bb          	mulw	a3,t2,t3
   12a50:	78f9                	lui	a7,0xffffe
   12a52:	0066063b          	addw	a2,a2,t1
   12a56:	4c812303          	lw	t1,1224(sp)
   12a5a:	1642                	slli	a2,a2,0x30
   12a5c:	9241                	srli	a2,a2,0x30
   12a5e:	00c9ce33          	xor	t3,s3,a2
   12a62:	46c13023          	sd	a2,1120(sp)
   12a66:	54c88613          	addi	a2,a7,1356 # ffffffffffffe54c <stderr@@GLIBC_2.25+0xfffffffffffe350c>
   12a6a:	00ce4633          	xor	a2,t3,a2
   12a6e:	036304bb          	mulw	s1,t1,s6
   12a72:	f232                	sd	a2,288(sp)
   12a74:	20813603          	ld	a2,520(sp)
   12a78:	51012303          	lw	t1,1296(sp)
   12a7c:	3fb13423          	sd	s11,1000(sp)
   12a80:	8eb1                	xor	a3,a3,a2
   12a82:	03069b13          	slli	s6,a3,0x30
   12a86:	030b5b13          	srli	s6,s6,0x30
   12a8a:	87da                	mv	a5,s6
   12a8c:	50812b03          	lw	s6,1288(sp)
   12a90:	03049613          	slli	a2,s1,0x30
   12a94:	9241                	srli	a2,a2,0x30
   12a96:	026b06bb          	mulw	a3,s6,t1
   12a9a:	01b64b33          	xor	s6,a2,s11
   12a9e:	835a                	mv	t1,s6
   12aa0:	3f613823          	sd	s6,1008(sp)
   12aa4:	6b19                	lui	s6,0x6
   12aa6:	d36b0b1b          	addiw	s6,s6,-714
   12aaa:	01630b3b          	addw	s6,t1,s6
   12aae:	65812d83          	lw	s11,1624(sp)
   12ab2:	84da                	mv	s1,s6
   12ab4:	7b69                	lui	s6,0xffffa
   12ab6:	a16b031b          	addiw	t1,s6,-1514
   12aba:	026d88bb          	mulw	a7,s11,t1
   12abe:	03069b13          	slli	s6,a3,0x30
   12ac2:	030b5b13          	srli	s6,s6,0x30
   12ac6:	efda                	sd	s6,472(sp)
   12ac8:	4a012303          	lw	t1,1184(sp)
   12acc:	4a812b03          	lw	s6,1192(sp)
   12ad0:	67012d83          	lw	s11,1648(sp)
   12ad4:	e832                	sd	a2,16(sp)
   12ad6:	18c2                	slli	a7,a7,0x30
   12ad8:	0308d893          	srli	a7,a7,0x30
   12adc:	01e8cf33          	xor	t5,a7,t5
   12ae0:	2be13823          	sd	t5,688(sp)
   12ae4:	4f06                	lw	t5,64(sp)
   12ae6:	0363033b          	mulw	t1,t1,s6
   12aea:	011d86bb          	addw	a3,s11,a7
   12aee:	6f815883          	lhu	a7,1784(sp)
   12af2:	16c2                	slli	a3,a3,0x30
   12af4:	92c1                	srli	a3,a3,0x30
   12af6:	00dcc633          	xor	a2,s9,a3
   12afa:	021f0f3b          	mulw	t5,t5,ra
   12afe:	1342                	slli	t1,t1,0x30
   12b00:	03035313          	srli	t1,t1,0x30
   12b04:	6095                	lui	ra,0x5
   12b06:	59e12823          	sw	t5,1424(sp)
   12b0a:	01134f33          	xor	t5,t1,a7
   12b0e:	73e13c23          	sd	t5,1848(sp)
   12b12:	c78e8f1b          	addiw	t5,t4,-904
   12b16:	01e3033b          	addw	t1,t1,t5
   12b1a:	38013f03          	ld	t5,896(sp)
   12b1e:	006f4333          	xor	t1,t5,t1
   12b22:	00654533          	xor	a0,a0,t1
   12b26:	74a13023          	sd	a0,1856(sp)
   12b2a:	50012503          	lw	a0,1280(sp)
   12b2e:	40812f03          	lw	t5,1032(sp)
   12b32:	3390831b          	addiw	t1,ra,825
   12b36:	508e                	lw	ra,224(sp)
   12b38:	03e50f3b          	mulw	t5,a0,t5
   12b3c:	66813d83          	ld	s11,1640(sp)
   12b40:	4cf13023          	sd	a5,1216(sp)
   12b44:	0269853b          	mulw	a0,s3,t1
   12b48:	737d                	lui	t1,0xfffff
   12b4a:	7ae3031b          	addiw	t1,t1,1966
   12b4e:	006f0f3b          	addw	t5,t5,t1
   12b52:	24812303          	lw	t1,584(sp)
   12b56:	12812983          	lw	s3,296(sp)
   12b5a:	5be12c23          	sw	t5,1464(sp)
   12b5e:	026088bb          	mulw	a7,ra,t1
   12b62:	03051093          	slli	ra,a0,0x30
   12b66:	44012503          	lw	a0,1088(sp)
   12b6a:	45812303          	lw	t1,1112(sp)
   12b6e:	0300d093          	srli	ra,ra,0x30
   12b72:	24113423          	sd	ra,584(sp)
   12b76:	0305083b          	mulw	a6,a0,a6
   12b7a:	5502                	lw	a0,32(sp)
   12b7c:	00a8853b          	addw	a0,a7,a0
   12b80:	64a12c23          	sw	a0,1624(sp)
   12b84:	11812503          	lw	a0,280(sp)
   12b88:	02a30b3b          	mulw	s6,t1,a0
   12b8c:	631d                	lui	t1,0x7
   12b8e:	85a30313          	addi	t1,t1,-1958 # 685a <fprintf@plt-0x9b76>
   12b92:	00684833          	xor	a6,a6,t1
   12b96:	67813503          	ld	a0,1656(sp)
   12b9a:	1842                	slli	a6,a6,0x30
   12b9c:	03085813          	srli	a6,a6,0x30
   12ba0:	00a84533          	xor	a0,a6,a0
   12ba4:	8d2d                	xor	a0,a0,a1
   12ba6:	00c84633          	xor	a2,a6,a2
   12baa:	00c54333          	xor	t1,a0,a2
   12bae:	00ccc0b3          	xor	ra,s9,a2
   12bb2:	0339863b          	mulw	a2,s3,s3
   12bb6:	6a113423          	sd	ra,1704(sp)
   12bba:	2b013083          	ld	ra,688(sp)
   12bbe:	4aa13023          	sd	a0,1184(sp)
   12bc2:	01b84833          	xor	a6,a6,s11
   12bc6:	2f013503          	ld	a0,752(sp)
   12bca:	1b42                	slli	s6,s6,0x30
   12bcc:	0100c833          	xor	a6,ra,a6
   12bd0:	030b5b13          	srli	s6,s6,0x30
   12bd4:	70e2                	ld	ra,56(sp)
   12bd6:	1642                	slli	a2,a2,0x30
   12bd8:	01fb4f33          	xor	t5,s6,t6
   12bdc:	69812d83          	lw	s11,1688(sp)
   12be0:	6a613023          	sd	t1,1696(sp)
   12be4:	9241                	srli	a2,a2,0x30
   12be6:	007b4333          	xor	t1,s6,t2
   12bea:	48013b03          	ld	s6,1152(sp)
   12bee:	00c548b3          	xor	a7,a0,a2
   12bf2:	7522                	ld	a0,40(sp)
   12bf4:	001f09bb          	addw	s3,t5,ra
   12bf8:	6d312c23          	sw	s3,1752(sp)
   12bfc:	036d89bb          	mulw	s3,s11,s6
   12c00:	738a                	ld	t2,160(sp)
   12c02:	8e29                	xor	a2,a2,a0
   12c04:	00d806bb          	addw	a3,a6,a3
   12c08:	9c31                	addw	s0,s0,a2
   12c0a:	16c2                	slli	a3,a3,0x30
   12c0c:	92c1                	srli	a3,a3,0x30
   12c0e:	006fcfb3          	xor	t6,t6,t1
   12c12:	1442                	slli	s0,s0,0x30
   12c14:	01f7cfb3          	xor	t6,a5,t6
   12c18:	4de13423          	sd	t5,1224(sp)
   12c1c:	9041                	srli	s0,s0,0x30
   12c1e:	0105cf33          	xor	t5,a1,a6
   12c22:	0076c833          	xor	a6,a3,t2
   12c26:	8da2                	mv	s11,s0
   12c28:	47813783          	ld	a5,1144(sp)
   12c2c:	2be13c23          	sd	t5,696(sp)
   12c30:	2d013023          	sd	a6,704(sp)
   12c34:	4a613823          	sd	t1,1200(sp)
   12c38:	01f0c833          	xor	a6,ra,t6
   12c3c:	6c012f83          	lw	t6,1728(sp)
   12c40:	48812403          	lw	s0,1160(sp)
   12c44:	03099093          	slli	ra,s3,0x30
   12c48:	0300d093          	srli	ra,ra,0x30
   12c4c:	028f8fbb          	mulw	t6,t6,s0
   12c50:	0168c333          	xor	t1,a7,s6
   12c54:	6b815503          	lhu	a0,1720(sp)
   12c58:	001888bb          	addw	a7,a7,ra
   12c5c:	18c2                	slli	a7,a7,0x30
   12c5e:	0308d893          	srli	a7,a7,0x30
   12c62:	59812403          	lw	s0,1432(sp)
   12c66:	0110ceb3          	xor	t4,ra,a7
   12c6a:	00a8c533          	xor	a0,a7,a0
   12c6e:	4e113023          	sd	ra,1248(sp)
   12c72:	60e2                	ld	ra,24(sp)
   12c74:	01164633          	xor	a2,a2,a7
   12c78:	01d5053b          	addw	a0,a0,t4
   12c7c:	8e3d                	xor	a2,a2,a5
   12c7e:	03a40d3b          	mulw	s10,s0,s10
   12c82:	1542                	slli	a0,a0,0x30
   12c84:	9141                	srli	a0,a0,0x30
   12c86:	00c0c633          	xor	a2,ra,a2
   12c8a:	6991                	lui	s3,0x4
   12c8c:	1fc2                	slli	t6,t6,0x30
   12c8e:	00c54b33          	xor	s6,a0,a2
   12c92:	030fdf93          	srli	t6,t6,0x30
   12c96:	a4d98413          	addi	s0,s3,-1459 # 3a4d <fprintf@plt-0xc983>
   12c9a:	008fc433          	xor	s0,t6,s0
   12c9e:	016508bb          	addw	a7,a0,s6
   12ca2:	6e813c23          	sd	s0,1784(sp)
   12ca6:	845a                	mv	s0,s6
   12ca8:	03089b13          	slli	s6,a7,0x30
   12cac:	030b5b13          	srli	s6,s6,0x30
   12cb0:	0067c333          	xor	t1,a5,t1
   12cb4:	0166063b          	addw	a2,a2,s6
   12cb8:	31013783          	ld	a5,784(sp)
   12cbc:	1642                	slli	a2,a2,0x30
   12cbe:	9241                	srli	a2,a2,0x30
   12cc0:	00ffcfb3          	xor	t6,t6,a5
   12cc4:	2ec13823          	sd	a2,752(sp)
   12cc8:	13812783          	lw	a5,312(sp)
   12ccc:	31812603          	lw	a2,792(sp)
   12cd0:	1d42                	slli	s10,s10,0x30
   12cd2:	030d5d13          	srli	s10,s10,0x30
   12cd6:	01ac43b3          	xor	t2,s8,s10
   12cda:	02c78ebb          	mulw	t4,a5,a2
   12cde:	4c2a                	lw	s8,136(sp)
   12ce0:	52013783          	ld	a5,1312(sp)
   12ce4:	6092                	ld	ra,256(sp)
   12ce6:	018f863b          	addw	a2,t6,s8
   12cea:	00f3cf33          	xor	t5,t2,a5
   12cee:	30813783          	ld	a5,776(sp)
   12cf2:	03061c13          	slli	s8,a2,0x30
   12cf6:	030c5c13          	srli	s8,s8,0x30
   12cfa:	0180c633          	xor	a2,ra,s8
   12cfe:	0167c7b3          	xor	a5,a5,s6
   12d02:	52c13423          	sd	a2,1320(sp)
   12d06:	4ef13c23          	sd	a5,1272(sp)
   12d0a:	00f4063b          	addw	a2,s0,a5
   12d0e:	00adc7b3          	xor	a5,s11,a0
   12d12:	4e813823          	sd	s0,1264(sp)
   12d16:	6ef13423          	sd	a5,1768(sp)
   12d1a:	13012403          	lw	s0,304(sp)
   12d1e:	11012783          	lw	a5,272(sp)
   12d22:	a4d98993          	addi	s3,s3,-1459
   12d26:	31b13c23          	sd	s11,792(sp)
   12d2a:	028788bb          	mulw	a7,a5,s0
   12d2e:	030e9413          	slli	s0,t4,0x30
   12d32:	49012e83          	lw	t4,1168(sp)
   12d36:	9041                	srli	s0,s0,0x30
   12d38:	32013783          	ld	a5,800(sp)
   12d3c:	01d400bb          	addw	ra,s0,t4
   12d40:	10c2                	slli	ra,ra,0x30
   12d42:	0300d093          	srli	ra,ra,0x30
   12d46:	33813023          	sd	s8,800(sp)
   12d4a:	018fcc33          	xor	s8,t6,s8
   12d4e:	2f812f83          	lw	t6,760(sp)
   12d52:	0130ceb3          	xor	t4,ra,s3
   12d56:	03061993          	slli	s3,a2,0x30
   12d5a:	0309d993          	srli	s3,s3,0x30
   12d5e:	01f30fbb          	addw	t6,t1,t6
   12d62:	51313023          	sd	s3,1280(sp)
   12d66:	01d7c9b3          	xor	s3,a5,t4
   12d6a:	50813423          	sd	s0,1288(sp)
   12d6e:	50113823          	sd	ra,1296(sp)
   12d72:	71313423          	sd	s3,1800(sp)
   12d76:	6ff11823          	sh	t6,1776(sp)
   12d7a:	e0e2                	sd	s8,64(sp)
   12d7c:	7fca                	ld	t6,176(sp)
   12d7e:	4c6a                	lw	s8,152(sp)
   12d80:	77b6                	ld	a5,360(sp)
   12d82:	18c2                	slli	a7,a7,0x30
   12d84:	0308d893          	srli	a7,a7,0x30
   12d88:	0389063b          	mulw	a2,s2,s8
   12d8c:	0117c933          	xor	s2,a5,a7
   12d90:	ee4a                	sd	s2,280(sp)
   12d92:	3c013903          	ld	s2,960(sp)
   12d96:	708a                	ld	ra,160(sp)
   12d98:	01f6cfb3          	xor	t6,a3,t6
   12d9c:	01194933          	xor	s2,s2,a7
   12da0:	01f0c7b3          	xor	a5,ra,t6
   12da4:	55213c23          	sd	s2,1368(sp)
   12da8:	4bf13423          	sd	t6,1192(sp)
   12dac:	2d812903          	lw	s2,728(sp)
   12db0:	2e012f83          	lw	t6,736(sp)
   12db4:	5c2a                	lw	s8,168(sp)
   12db6:	498a                	lw	s3,128(sp)
   12db8:	03f90fbb          	mulw	t6,s2,t6
   12dbc:	1642                	slli	a2,a2,0x30
   12dbe:	9241                	srli	a2,a2,0x30
   12dc0:	00c3c933          	xor	s2,t2,a2
   12dc4:	5d213c23          	sd	s2,1496(sp)
   12dc8:	47013903          	ld	s2,1136(sp)
   12dcc:	6af13c23          	sd	a5,1720(sp)
   12dd0:	5c015783          	lhu	a5,1472(sp)
   12dd4:	01e64f33          	xor	t5,a2,t5
   12dd8:	033c06bb          	mulw	a3,s8,s3
   12ddc:	20812c03          	lw	s8,520(sp)
   12de0:	1fc2                	slli	t6,t6,0x30
   12de2:	030fdf93          	srli	t6,t6,0x30
   12de6:	01fc0c3b          	addw	s8,s8,t6
   12dea:	0b811423          	sh	s8,168(sp)
   12dee:	01f94c33          	xor	s8,s2,t6
   12df2:	23813903          	ld	s2,568(sp)
   12df6:	42812983          	lw	s3,1064(sp)
   12dfa:	00ff4f33          	xor	t5,t5,a5
   12dfe:	16c2                	slli	a3,a3,0x30
   12e00:	1f812783          	lw	a5,504(sp)
   12e04:	92c1                	srli	a3,a3,0x30
   12e06:	0126c333          	xor	t1,a3,s2
   12e0a:	02f98ebb          	mulw	t4,s3,a5
   12e0e:	0013131b          	slliw	t1,t1,0x1
   12e12:	00e3073b          	addw	a4,t1,a4
   12e16:	03071993          	slli	s3,a4,0x30
   12e1a:	0309d993          	srli	s3,s3,0x30
   12e1e:	0136c3b3          	xor	t2,a3,s3
   12e22:	894e                	mv	s2,s3
   12e24:	79f5                	lui	s3,0xffffd
   12e26:	77b98993          	addi	s3,s3,1915 # ffffffffffffd77b <stderr@@GLIBC_2.25+0xfffffffffffe273b>
   12e2a:	0133c733          	xor	a4,t2,s3
   12e2e:	6d813023          	sd	s8,1728(sp)
   12e32:	7c46                	ld	s8,112(sp)
   12e34:	03071993          	slli	s3,a4,0x30
   12e38:	0309d993          	srli	s3,s3,0x30
   12e3c:	8dce                	mv	s11,s3
   12e3e:	013c073b          	addw	a4,s8,s3
   12e42:	43012783          	lw	a5,1072(sp)
   12e46:	43812983          	lw	s3,1080(sp)
   12e4a:	030e9413          	slli	s0,t4,0x30
   12e4e:	9041                	srli	s0,s0,0x30
   12e50:	033789bb          	mulw	s3,a5,s3
   12e54:	008d0d3b          	addw	s10,s10,s0
   12e58:	47ea                	lw	a5,152(sp)
   12e5a:	1d42                	slli	s10,s10,0x30
   12e5c:	030d5d13          	srli	s10,s10,0x30
   12e60:	0087833b          	addw	t1,a5,s0
   12e64:	01ed47b3          	xor	a5,s10,t5
   12e68:	42013f03          	ld	t5,1056(sp)
   12e6c:	03031093          	slli	ra,t1,0x30
   12e70:	1742                	slli	a4,a4,0x30
   12e72:	0300d093          	srli	ra,ra,0x30
   12e76:	9341                	srli	a4,a4,0x30
   12e78:	833a                	mv	t1,a4
   12e7a:	5ef13823          	sd	a5,1520(sp)
   12e7e:	007f4733          	xor	a4,t5,t2
   12e82:	01a0c7b3          	xor	a5,ra,s10
   12e86:	44813023          	sd	s0,1088(sp)
   12e8a:	42713423          	sd	t2,1064(sp)
   12e8e:	32813403          	ld	s0,808(sp)
   12e92:	5ce13023          	sd	a4,1472(sp)
   12e96:	f1be                	sd	a5,224(sp)
   12e98:	47aa                	lw	a5,136(sp)
   12e9a:	6f15                	lui	t5,0x5
   12e9c:	22013383          	ld	t2,544(sp)
   12ea0:	02f4073b          	mulw	a4,s0,a5
   12ea4:	5c812783          	lw	a5,1480(sp)
   12ea8:	006c4c33          	xor	s8,s8,t1
   12eac:	5d813423          	sd	s8,1480(sp)
   12eb0:	01b94c33          	xor	s8,s2,s11
   12eb4:	43213023          	sd	s2,1056(sp)
   12eb8:	5d813823          	sd	s8,1488(sp)
   12ebc:	4946                	lw	s2,80(sp)
   12ebe:	71812c03          	lw	s8,1816(sp)
   12ec2:	01a64d33          	xor	s10,a2,s10
   12ec6:	70e12823          	sw	a4,1808(sp)
   12eca:	670e                	ld	a4,192(sp)
   12ecc:	5fa13423          	sd	s10,1512(sp)
   12ed0:	42613c23          	sd	t1,1080(sp)
   12ed4:	013749b3          	xor	s3,a4,s3
   12ed8:	19c2                	slli	s3,s3,0x30
   12eda:	0309d993          	srli	s3,s3,0x30
   12ede:	0e3f071b          	addiw	a4,t5,227
   12ee2:	00e9873b          	addw	a4,s3,a4
   12ee6:	00e3c733          	xor	a4,t2,a4
   12eea:	1742                	slli	a4,a4,0x30
   12eec:	9341                	srli	a4,a4,0x30
   12eee:	44e13c23          	sd	a4,1112(sp)
   12ef2:	9f3d                	addw	a4,a4,a5
   12ef4:	1742                	slli	a4,a4,0x30
   12ef6:	9341                	srli	a4,a4,0x30
   12ef8:	22e13c23          	sd	a4,568(sp)
   12efc:	777d                	lui	a4,0xfffff
   12efe:	b6970d1b          	addiw	s10,a4,-1175
   12f02:	032c033b          	mulw	t1,s8,s2
   12f06:	001d093b          	addw	s2,s10,ra
   12f0a:	03091d13          	slli	s10,s2,0x30
   12f0e:	030d5d13          	srli	s10,s10,0x30
   12f12:	e16a                	sd	s10,128(sp)
   12f14:	14812d03          	lw	s10,328(sp)
   12f18:	6709                	lui	a4,0x2
   12f1a:	ce170c1b          	addiw	s8,a4,-799
   12f1e:	43b13823          	sd	s11,1072(sp)
   12f22:	5a012d83          	lw	s11,1440(sp)
   12f26:	038d073b          	mulw	a4,s10,s8
   12f2a:	35813d03          	ld	s10,856(sp)
   12f2e:	5e015783          	lhu	a5,1504(sp)
   12f32:	20113423          	sd	ra,520(sp)
   12f36:	6e85                	lui	t4,0x1
   12f38:	69ae8e9b          	addiw	t4,t4,1690
   12f3c:	035d863b          	mulw	a2,s11,s5
   12f40:	49813a83          	ld	s5,1176(sp)
   12f44:	00e3073b          	addw	a4,t1,a4
   12f48:	28012303          	lw	t1,640(sp)
   12f4c:	00eac733          	xor	a4,s5,a4
   12f50:	34812a83          	lw	s5,840(sp)
   12f54:	0157073b          	addw	a4,a4,s5
   12f58:	1742                	slli	a4,a4,0x30
   12f5a:	72013a83          	ld	s5,1824(sp)
   12f5e:	9341                	srli	a4,a4,0x30
   12f60:	00ed4d33          	xor	s10,s10,a4
   12f64:	01574933          	xor	s2,a4,s5
   12f68:	75a13823          	sd	s10,1872(sp)
   12f6c:	7726                	ld	a4,104(sp)
   12f6e:	5d42                	lw	s10,48(sp)
   12f70:	36812a83          	lw	s5,872(sp)
   12f74:	03d58ebb          	mulw	t4,a1,t4
   12f78:	0159093b          	addw	s2,s2,s5
   12f7c:	03091a93          	slli	s5,s2,0x30
   12f80:	030ada93          	srli	s5,s5,0x30
   12f84:	02ed0c3b          	mulw	s8,s10,a4
   12f88:	00f64d33          	xor	s10,a2,a5
   12f8c:	33a13423          	sd	s10,808(sp)
   12f90:	5d4e                	lw	s10,240(sp)
   12f92:	1c42                	slli	s8,s8,0x30
   12f94:	030c5c13          	srli	s8,s8,0x30
   12f98:	026d00bb          	mulw	ra,s10,t1
   12f9c:	0187073b          	addw	a4,a4,s8
   12fa0:	731e                	ld	t1,480(sp)
   12fa2:	1742                	slli	a4,a4,0x30
   12fa4:	9341                	srli	a4,a4,0x30
   12fa6:	00674d33          	xor	s10,a4,t1
   12faa:	00ec4333          	xor	t1,s8,a4
   12fae:	41a13423          	sd	s10,1032(sp)
   12fb2:	58613c23          	sd	t1,1432(sp)
   12fb6:	3f812303          	lw	t1,1016(sp)
   12fba:	64012c03          	lw	s8,1600(sp)
   12fbe:	10c2                	slli	ra,ra,0x30
   12fc0:	00e3033b          	addw	t1,t1,a4
   12fc4:	5a611023          	sh	t1,1440(sp)
   12fc8:	27812303          	lw	t1,632(sp)
   12fcc:	7771                	lui	a4,0xffffc
   12fce:	0300d093          	srli	ra,ra,0x30
   12fd2:	026c0f3b          	mulw	t5,s8,t1
   12fd6:	0fd70c1b          	addiw	s8,a4,253
   12fda:	001c03bb          	addw	t2,s8,ra
   12fde:	13c2                	slli	t2,t2,0x30
   12fe0:	7c7d                	lui	s8,0xfffff
   12fe2:	0303d393          	srli	t2,t2,0x30
   12fe6:	e07c0c13          	addi	s8,s8,-505 # ffffffffffffee07 <stderr@@GLIBC_2.25+0xfffffffffffe3dc7>
   12fea:	0183cc33          	xor	s8,t2,s8
   12fee:	634a                	ld	t1,144(sp)
   12ff0:	67813823          	sd	s8,1648(sp)
   12ff4:	29012c03          	lw	s8,656(sp)
   12ff8:	46813783          	ld	a5,1128(sp)
   12ffc:	1f42                	slli	t5,t5,0x30
   12ffe:	030f5f13          	srli	t5,t5,0x30
   13002:	8d3a                	mv	s10,a4
   13004:	0383073b          	mulw	a4,t1,s8
   13008:	01e7863b          	addw	a2,a5,t5
   1300c:	03061913          	slli	s2,a2,0x30
   13010:	03095913          	srli	s2,s2,0x30
   13014:	864a                	mv	a2,s2
   13016:	007943b3          	xor	t2,s2,t2
   1301a:	791a                	ld	s2,416(sp)
   1301c:	64812d83          	lw	s11,1608(sp)
   13020:	48c13023          	sd	a2,1152(sp)
   13024:	01e94c33          	xor	s8,s2,t5
   13028:	49813423          	sd	s8,1160(sp)
   1302c:	00c0cc33          	xor	s8,ra,a2
   13030:	01ed863b          	addw	a2,s11,t5
   13034:	0186093b          	addw	s2,a2,s8
   13038:	2a813603          	ld	a2,680(sp)
   1303c:	1742                	slli	a4,a4,0x30
   1303e:	9341                	srli	a4,a4,0x30
   13040:	00e645b3          	xor	a1,a2,a4
   13044:	00e34733          	xor	a4,t1,a4
   13048:	7365                	lui	t1,0xffff9
   1304a:	f4d3031b          	addiw	t1,t1,-179
   1304e:	00e3073b          	addw	a4,t1,a4
   13052:	70012303          	lw	t1,1792(sp)
   13056:	5fd12023          	sw	t4,1504(sp)
   1305a:	33812e83          	lw	t4,824(sp)
   1305e:	0283063b          	mulw	a2,t1,s0
   13062:	33012303          	lw	t1,816(sp)
   13066:	67212c23          	sw	s2,1656(sp)
   1306a:	1742                	slli	a4,a4,0x30
   1306c:	f862                	sd	s8,48(sp)
   1306e:	9341                	srli	a4,a4,0x30
   13070:	6c06                	ld	s8,64(sp)
   13072:	e6ba                	sd	a4,328(sp)
   13074:	ed2e                	sd	a1,152(sp)
   13076:	62812d83          	lw	s11,1576(sp)
   1307a:	03061913          	slli	s2,a2,0x30
   1307e:	662a                	ld	a2,136(sp)
   13080:	03d3073b          	mulw	a4,t1,t4
   13084:	03095913          	srli	s2,s2,0x30
   13088:	012645b3          	xor	a1,a2,s2
   1308c:	0185833b          	addw	t1,a1,s8
   13090:	74611423          	sh	t1,1864(sp)
   13094:	60012303          	lw	t1,1536(sp)
   13098:	6415                	lui	s0,0x5
   1309a:	0e340e9b          	addiw	t4,s0,227
   1309e:	51213c23          	sd	s2,1304(sp)
   130a2:	f9ae                	sd	a1,240(sp)
   130a4:	0343063b          	mulw	a2,t1,s4
   130a8:	03071313          	slli	t1,a4,0x30
   130ac:	03035313          	srli	t1,t1,0x30
   130b0:	01834c33          	xor	s8,t1,s8
   130b4:	52613023          	sd	t1,1312(sp)
   130b8:	7306                	ld	t1,96(sp)
   130ba:	31813823          	sd	s8,784(sp)
   130be:	0fdd0d1b          	addiw	s10,s10,253
   130c2:	026d873b          	mulw	a4,s11,t1
   130c6:	01d6063b          	addw	a2,a2,t4
   130ca:	21812e83          	lw	t4,536(sp)
   130ce:	61013d83          	ld	s11,1552(sp)
   130d2:	1642                	slli	a2,a2,0x30
   130d4:	9241                	srli	a2,a2,0x30
   130d6:	00ce843b          	addw	s0,t4,a2
   130da:	01b64eb3          	xor	t4,a2,s11
   130de:	25812603          	lw	a2,600(sp)
   130e2:	61d13023          	sd	t4,1536(sp)
   130e6:	65012d83          	lw	s11,1616(sp)
   130ea:	02cd0ebb          	mulw	t4,s10,a2
   130ee:	6d22                	ld	s10,8(sp)
   130f0:	6619                	lui	a2,0x6
   130f2:	00ed4733          	xor	a4,s10,a4
   130f6:	1742                	slli	a4,a4,0x30
   130f8:	9341                	srli	a4,a4,0x30
   130fa:	72a60d1b          	addiw	s10,a2,1834
   130fe:	01a70d3b          	addw	s10,a4,s10
   13102:	24812603          	lw	a2,584(sp)
   13106:	65a12023          	sw	s10,1600(sp)
   1310a:	6d15                	lui	s10,0x5
   1310c:	00e345b3          	xor	a1,t1,a4
   13110:	339d0d13          	addi	s10,s10,825 # 5339 <fprintf@plt-0xb097>
   13114:	01a74d33          	xor	s10,a4,s10
   13118:	00c5833b          	addw	t1,a1,a2
   1311c:	01d7ceb3          	xor	t4,a5,t4
   13120:	01a7063b          	addw	a2,a4,s10
   13124:	47a13423          	sd	s10,1128(sp)
   13128:	03031d13          	slli	s10,t1,0x30
   1312c:	29012303          	lw	t1,656(sp)
   13130:	030e9913          	slli	s2,t4,0x30
   13134:	03095913          	srli	s2,s2,0x30
   13138:	00794c33          	xor	s8,s2,t2
   1313c:	026d833b          	mulw	t1,s11,t1
   13140:	1642                	slli	a2,a2,0x30
   13142:	8dca                	mv	s11,s2
   13144:	7979                	lui	s2,0xffffe
   13146:	9241                	srli	a2,a2,0x30
   13148:	54c90793          	addi	a5,s2,1356 # ffffffffffffe54c <stderr@@GLIBC_2.25+0xfffffffffffe350c>
   1314c:	00f64eb3          	xor	t4,a2,a5
   13150:	01c647b3          	xor	a5,a2,t3
   13154:	64f13423          	sd	a5,1608(sp)
   13158:	54c90793          	addi	a5,s2,1356
   1315c:	00f74633          	xor	a2,a4,a5
   13160:	25013783          	ld	a5,592(sp)
   13164:	1ec2                	slli	t4,t4,0x30
   13166:	1642                	slli	a2,a2,0x30
   13168:	030ede93          	srli	t4,t4,0x30
   1316c:	9241                	srli	a2,a2,0x30
   1316e:	f0f6                	sd	t4,96(sp)
   13170:	24c13823          	sd	a2,592(sp)
   13174:	19012e83          	lw	t4,400(sp)
   13178:	8e3d                	xor	a2,a2,a5
   1317a:	47e6                	lw	a5,88(sp)
   1317c:	030d5d13          	srli	s10,s10,0x30
   13180:	47b13c23          	sd	s11,1144(sp)
   13184:	03d78ebb          	mulw	t4,a5,t4
   13188:	03031793          	slli	a5,t1,0x30
   1318c:	836a                	mv	t1,s10
   1318e:	01cd4d33          	xor	s10,s10,t3
   13192:	65a13823          	sd	s10,1616(sp)
   13196:	7d6d                	lui	s10,0xffffb
   13198:	99cd0d1b          	addiw	s10,s10,-1636
   1319c:	00cd063b          	addw	a2,s10,a2
   131a0:	2a813d03          	ld	s10,680(sp)
   131a4:	7e06                	ld	t3,96(sp)
   131a6:	93c1                	srli	a5,a5,0x30
   131a8:	01a7cd33          	xor	s10,a5,s10
   131ac:	48f13c23          	sd	a5,1176(sp)
   131b0:	28812783          	lw	a5,648(sp)
   131b4:	01c6063b          	addw	a2,a2,t3
   131b8:	69a13c23          	sd	s10,1688(sp)
   131bc:	03061d13          	slli	s10,a2,0x30
   131c0:	6609                	lui	a2,0x2
   131c2:	01b7893b          	addw	s2,a5,s11
   131c6:	fb86079b          	addiw	a5,a2,-72
   131ca:	00fc063b          	addw	a2,s8,a5
   131ce:	53012d83          	lw	s11,1328(sp)
   131d2:	54012783          	lw	a5,1344(sp)
   131d6:	030d5d13          	srli	s10,s10,0x30
   131da:	f46a                	sd	s10,40(sp)
   131dc:	03061d13          	slli	s10,a2,0x30
   131e0:	02fd863b          	mulw	a2,s11,a5
   131e4:	030e9793          	slli	a5,t4,0x30
   131e8:	93c1                	srli	a5,a5,0x30
   131ea:	01c30e3b          	addw	t3,t1,t3
   131ee:	46613823          	sd	t1,1136(sp)
   131f2:	63813d83          	ld	s11,1592(sp)
   131f6:	25013303          	ld	t1,592(sp)
   131fa:	0057ceb3          	xor	t4,a5,t0
   131fe:	34f13423          	sd	a5,840(sp)
   13202:	01dbc7b3          	xor	a5,s7,t4
   13206:	01b34333          	xor	t1,t1,s11
   1320a:	e8be                	sd	a5,80(sp)
   1320c:	63c12423          	sw	t3,1576(sp)
   13210:	7d92                	ld	s11,288(sp)
   13212:	03031793          	slli	a5,t1,0x30
   13216:	93c1                	srli	a5,a5,0x30
   13218:	01b7ce33          	xor	t3,a5,s11
   1321c:	63c13c23          	sd	t3,1592(sp)
   13220:	7e79                	lui	t3,0xffffe
   13222:	030d5d13          	srli	s10,s10,0x30
   13226:	07ee0e13          	addi	t3,t3,126 # ffffffffffffe07e <stderr@@GLIBC_2.25+0xfffffffffffe303e>
   1322a:	01cd4333          	xor	t1,s10,t3
   1322e:	03031e13          	slli	t3,t1,0x30
   13232:	030e5e13          	srli	t3,t3,0x30
   13236:	29c13823          	sd	t3,656(sp)
   1323a:	7e66                	ld	t3,120(sp)
   1323c:	57013d83          	ld	s11,1392(sp)
   13240:	0372833b          	mulw	t1,t0,s7
   13244:	00ce4633          	xor	a2,t3,a2
   13248:	03061e13          	slli	t3,a2,0x30
   1324c:	030e5e13          	srli	t3,t3,0x30
   13250:	01be4633          	xor	a2,t3,s11
   13254:	3dc13023          	sd	t3,960(sp)
   13258:	6e3e                	ld	t3,456(sp)
   1325a:	ce7bcd93          	xori	s11,s7,-793
   1325e:	00ce4633          	xor	a2,t3,a2
   13262:	3e013e03          	ld	t3,992(sp)
   13266:	1642                	slli	a2,a2,0x30
   13268:	9241                	srli	a2,a2,0x30
   1326a:	3ec13023          	sd	a2,992(sp)
   1326e:	00ce4633          	xor	a2,t3,a2
   13272:	6e42                	ld	t3,16(sp)
   13274:	006dc333          	xor	t1,s11,t1
   13278:	00ce4e33          	xor	t3,t3,a2
   1327c:	fe72                	sd	t3,312(sp)
   1327e:	1a012603          	lw	a2,416(sp)
   13282:	28812e03          	lw	t3,648(sp)
   13286:	03c60e3b          	mulw	t3,a2,t3
   1328a:	03031613          	slli	a2,t1,0x30
   1328e:	9241                	srli	a2,a2,0x30
   13290:	30812303          	lw	t1,776(sp)
   13294:	ecb2                	sd	a2,88(sp)
   13296:	4662                	lw	a2,24(sp)
   13298:	1e42                	slli	t3,t3,0x30
   1329a:	030e5e13          	srli	t3,t3,0x30
   1329e:	0266063b          	mulw	a2,a2,t1
   132a2:	007e03bb          	addw	t2,t3,t2
   132a6:	fcf2                	sd	t3,120(sp)
   132a8:	03039e13          	slli	t3,t2,0x30
   132ac:	030e5e13          	srli	t3,t3,0x30
   132b0:	012e4933          	xor	s2,t3,s2
   132b4:	53ea                	lw	t2,184(sp)
   132b6:	67213423          	sd	s2,1640(sp)
   132ba:	35012903          	lw	s2,848(sp)
   132be:	49c13823          	sd	t3,1168(sp)
   132c2:	72815303          	lhu	t1,1832(sp)
   132c6:	02790e3b          	mulw	t3,s2,t2
   132ca:	30013903          	ld	s2,768(sp)
   132ce:	16012383          	lw	t2,352(sp)
   132d2:	00c94633          	xor	a2,s2,a2
   132d6:	03061913          	slli	s2,a2,0x30
   132da:	4d012603          	lw	a2,1232(sp)
   132de:	03095913          	srli	s2,s2,0x30
   132e2:	f3ca                	sd	s2,480(sp)
   132e4:	0276063b          	mulw	a2,a2,t2
   132e8:	030e1913          	slli	s2,t3,0x30
   132ec:	03095913          	srli	s2,s2,0x30
   132f0:	00694333          	xor	t1,s2,t1
   132f4:	18012383          	lw	t2,384(sp)
   132f8:	03031e13          	slli	t3,t1,0x30
   132fc:	4342                	lw	t1,16(sp)
   132fe:	030e5e13          	srli	t3,t3,0x30
   13302:	e1f2                	sd	t3,192(sp)
   13304:	53213823          	sd	s2,1328(sp)
   13308:	1642                	slli	a2,a2,0x30
   1330a:	9241                	srli	a2,a2,0x30
   1330c:	01764bb3          	xor	s7,a2,s7
   13310:	ce7b8e1b          	addiw	t3,s7,-793
   13314:	00c2863b          	addw	a2,t0,a2
   13318:	0263833b          	mulw	t1,t2,t1
   1331c:	2b713423          	sd	s7,680(sp)
   13320:	030e1393          	slli	t2,t3,0x30
   13324:	03061b93          	slli	s7,a2,0x30
   13328:	030bdb93          	srli	s7,s7,0x30
   1332c:	0303d393          	srli	t2,t2,0x30
   13330:	007b863b          	addw	a2,s7,t2
   13334:	35713823          	sd	s7,848(sp)
   13338:	03061b93          	slli	s7,a2,0x30
   1333c:	030bdb93          	srli	s7,s7,0x30
   13340:	36713423          	sd	t2,872(sp)
   13344:	017eceb3          	xor	t4,t4,s7
   13348:	59012d83          	lw	s11,1424(sp)
   1334c:	f25e                	sd	s7,288(sp)
   1334e:	40012b83          	lw	s7,1024(sp)
   13352:	ce7e8e9b          	addiw	t4,t4,-793
   13356:	1ec2                	slli	t4,t4,0x30
   13358:	037d863b          	mulw	a2,s11,s7
   1335c:	03031b93          	slli	s7,t1,0x30
   13360:	57815303          	lhu	t1,1400(sp)
   13364:	030bdb93          	srli	s7,s7,0x30
   13368:	030ede93          	srli	t4,t4,0x30
   1336c:	006bc333          	xor	t1,s7,t1
   13370:	31713423          	sd	s7,776(sp)
   13374:	f676                	sd	t4,296(sp)
   13376:	20012b83          	lw	s7,512(sp)
   1337a:	1d812e83          	lw	t4,472(sp)
   1337e:	6e7a                	ld	t3,408(sp)
   13380:	03061913          	slli	s2,a2,0x30
   13384:	03095913          	srli	s2,s2,0x30
   13388:	03031393          	slli	t2,t1,0x30
   1338c:	03db833b          	mulw	t1,s7,t4
   13390:	6b8d                	lui	s7,0x3
   13392:	01c94633          	xor	a2,s2,t3
   13396:	86cb8b93          	addi	s7,s7,-1940 # 286c <fprintf@plt-0xdb64>
   1339a:	01764e33          	xor	t3,a2,s7
   1339e:	0303d393          	srli	t2,t2,0x30
   133a2:	e41e                	sd	t2,8(sp)
   133a4:	030e1393          	slli	t2,t3,0x30
   133a8:	5a815e03          	lhu	t3,1448(sp)
   133ac:	f6ca                	sd	s2,360(sp)
   133ae:	61813d83          	ld	s11,1560(sp)
   133b2:	01c94bb3          	xor	s7,s2,t3
   133b6:	57713c23          	sd	s7,1400(sp)
   133ba:	6b89                	lui	s7,0x2
   133bc:	e78b8b93          	addi	s7,s7,-392 # 1e78 <fprintf@plt-0xe558>
   133c0:	01764633          	xor	a2,a2,s7
   133c4:	03061e13          	slli	t3,a2,0x30
   133c8:	4bae                	lw	s7,200(sp)
   133ca:	60812603          	lw	a2,1544(sp)
   133ce:	030e5e13          	srli	t3,t3,0x30
   133d2:	f372                	sd	t3,416(sp)
   133d4:	0376093b          	mulw	s2,a2,s7
   133d8:	03031613          	slli	a2,t1,0x30
   133dc:	9241                	srli	a2,a2,0x30
   133de:	45012b83          	lw	s7,1104(sp)
   133e2:	ec32                	sd	a2,24(sp)
   133e4:	22812603          	lw	a2,552(sp)
   133e8:	634e                	ld	t1,208(sp)
   133ea:	4eee                	lw	t4,216(sp)
   133ec:	0303d393          	srli	t2,t2,0x30
   133f0:	eb1e                	sd	t2,400(sp)
   133f2:	02cb863b          	mulw	a2,s7,a2
   133f6:	0139093b          	addw	s2,s2,s3
   133fa:	1942                	slli	s2,s2,0x30
   133fc:	03095913          	srli	s2,s2,0x30
   13400:	01234e33          	xor	t3,t1,s2
   13404:	01be49b3          	xor	s3,t3,s11
   13408:	21813303          	ld	t1,536(sp)
   1340c:	61313423          	sd	s3,1544(sp)
   13410:	23813983          	ld	s3,568(sp)
   13414:	62013d83          	ld	s11,1568(sp)
   13418:	01234933          	xor	s2,t1,s2
   1341c:	7bf1                	lui	s7,0xffffc
   1341e:	0129c9b3          	xor	s3,s3,s2
   13422:	9e21                	addw	a2,a2,s0
   13424:	1d1b8b93          	addi	s7,s7,465 # ffffffffffffc1d1 <stderr@@GLIBC_2.25+0xfffffffffffe1191>
   13428:	0179c333          	xor	t1,s3,s7
   1342c:	01be4bb3          	xor	s7,t3,s11
   13430:	03061e13          	slli	t3,a2,0x30
   13434:	22012603          	lw	a2,544(sp)
   13438:	030e5e13          	srli	t3,t3,0x30
   1343c:	61713c23          	sd	s7,1560(sp)
   13440:	63012b83          	lw	s7,1584(sp)
   13444:	01c6063b          	addw	a2,a2,t3
   13448:	03061393          	slli	t2,a2,0x30
   1344c:	3f313c23          	sd	s3,1016(sp)
   13450:	03db8bbb          	mulw	s7,s7,t4
   13454:	03031993          	slli	s3,t1,0x30
   13458:	0303d393          	srli	t2,t2,0x30
   1345c:	0309d993          	srli	s3,s3,0x30
   13460:	e99e                	sd	t2,208(sp)
   13462:	7465                	lui	s0,0xffff9
   13464:	24012603          	lw	a2,576(sp)
   13468:	4b812303          	lw	t1,1208(sp)
   1346c:	2d812e83          	lw	t4,728(sp)
   13470:	41313023          	sd	s3,1024(sp)
   13474:	e0e40413          	addi	s0,s0,-498 # ffffffffffff8e0e <stderr@@GLIBC_2.25+0xfffffffffffdddce>
   13478:	013e49b3          	xor	s3,t3,s3
   1347c:	0089c433          	xor	s0,s3,s0
   13480:	62813023          	sd	s0,1568(sp)
   13484:	026e843b          	mulw	s0,t4,t1
   13488:	0175cbb3          	xor	s7,a1,s7
   1348c:	4c012e83          	lw	t4,1216(sp)
   13490:	2e012583          	lw	a1,736(sp)
   13494:	01c6063b          	addw	a2,a2,t3
   13498:	6c013d83          	ld	s11,1728(sp)
   1349c:	60c12823          	sw	a2,1552(sp)
   134a0:	30012303          	lw	t1,768(sp)
   134a4:	2f813383          	ld	t2,760(sp)
   134a8:	45313823          	sd	s3,1104(sp)
   134ac:	03d585bb          	mulw	a1,a1,t4
   134b0:	1442                	slli	s0,s0,0x30
   134b2:	9041                	srli	s0,s0,0x30
   134b4:	01f4063b          	addw	a2,s0,t6
   134b8:	4a813c23          	sd	s0,1208(sp)
   134bc:	03061413          	slli	s0,a2,0x30
   134c0:	9041                	srli	s0,s0,0x30
   134c2:	01b44eb3          	xor	t4,s0,s11
   134c6:	4c813023          	sd	s0,1216(sp)
   134ca:	4dd13823          	sd	t4,1232(sp)
   134ce:	0a815403          	lhu	s0,168(sp)
   134d2:	4e812e83          	lw	t4,1256(sp)
   134d6:	5b812d83          	lw	s11,1464(sp)
   134da:	8da1                	xor	a1,a1,s0
   134dc:	026e863b          	mulw	a2,t4,t1
   134e0:	5ee2                	lw	t4,56(sp)
   134e2:	15c2                	slli	a1,a1,0x30
   134e4:	91c1                	srli	a1,a1,0x30
   134e6:	4c813403          	ld	s0,1224(sp)
   134ea:	00be833b          	addw	t1,t4,a1
   134ee:	03031e93          	slli	t4,t1,0x30
   134f2:	2e812303          	lw	t1,744(sp)
   134f6:	8da1                	xor	a1,a1,s0
   134f8:	030ede93          	srli	t4,t4,0x30
   134fc:	4cb13423          	sd	a1,1224(sp)
   13500:	00b305bb          	addw	a1,t1,a1
   13504:	e7f6                	sd	t4,456(sp)
   13506:	03059e93          	slli	t4,a1,0x30
   1350a:	41012583          	lw	a1,1040(sp)
   1350e:	1642                	slli	a2,a2,0x30
   13510:	9241                	srli	a2,a2,0x30
   13512:	02bd85bb          	mulw	a1,s11,a1
   13516:	1e012d83          	lw	s11,480(sp)
   1351a:	6f015403          	lhu	s0,1776(sp)
   1351e:	00c3c3b3          	xor	t2,t2,a2
   13522:	01b6033b          	addw	t1,a2,s11
   13526:	03031993          	slli	s3,t1,0x30
   1352a:	0309d993          	srli	s3,s3,0x30
   1352e:	21313023          	sd	s3,512(sp)
   13532:	0169c9b3          	xor	s3,s3,s6
   13536:	0083cdb3          	xor	s11,t2,s0
   1353a:	01364333          	xor	t1,a2,s3
   1353e:	030ede93          	srli	t4,t4,0x30
   13542:	15c2                	slli	a1,a1,0x30
   13544:	91c1                	srli	a1,a1,0x30
   13546:	f576                	sd	t4,168(sp)
   13548:	4e713423          	sd	t2,1256(sp)
   1354c:	5bb13423          	sd	s11,1448(sp)
   13550:	28613423          	sd	t1,648(sp)
   13554:	8ead                	xor	a3,a3,a1
   13556:	5f812303          	lw	t1,1528(sp)
   1355a:	20b13c23          	sd	a1,536(sp)
   1355e:	65fe                	ld	a1,472(sp)
   13560:	03430a3b          	mulw	s4,t1,s4
   13564:	737d                	lui	t1,0xfffff
   13566:	8ead                	xor	a3,a3,a1
   13568:	75de                	ld	a1,496(sp)
   1356a:	efb6                	sd	a3,472(sp)
   1356c:	5de3031b          	addiw	t1,t1,1502
   13570:	8ead                	xor	a3,a3,a1
   13572:	00d305bb          	addw	a1,t1,a3
   13576:	00b6c433          	xor	s0,a3,a1
   1357a:	46012303          	lw	t1,1120(sp)
   1357e:	24812683          	lw	a3,584(sp)
   13582:	1a42                	slli	s4,s4,0x30
   13584:	030a5a13          	srli	s4,s4,0x30
   13588:	026686bb          	mulw	a3,a3,t1
   1358c:	23413423          	sd	s4,552(sp)
   13590:	4e012303          	lw	t1,1248(sp)
   13594:	66013d83          	ld	s11,1632(sp)
   13598:	75ae                	ld	a1,232(sp)
   1359a:	28013383          	ld	t2,640(sp)
   1359e:	58d12823          	sw	a3,1424(sp)
   135a2:	23012683          	lw	a3,560(sp)
   135a6:	00da0a3b          	addw	s4,s4,a3
   135aa:	5f412c23          	sw	s4,1528(sp)
   135ae:	5682                	lw	a3,32(sp)
   135b0:	65812a03          	lw	s4,1624(sp)
   135b4:	02da06bb          	mulw	a3,s4,a3
   135b8:	6a19                	lui	s4,0x6
   135ba:	945a0e9b          	addiw	t4,s4,-1723
   135be:	3d3a0a1b          	addiw	s4,s4,979
   135c2:	03d309bb          	mulw	s3,t1,t4
   135c6:	00ddc6b3          	xor	a3,s11,a3
   135ca:	8ead                	xor	a3,a3,a1
   135cc:	27813583          	ld	a1,632(sp)
   135d0:	16c2                	slli	a3,a3,0x30
   135d2:	92c1                	srli	a3,a3,0x30
   135d4:	8db5                	xor	a1,a1,a3
   135d6:	00bf0f3b          	addw	t5,t5,a1
   135da:	00d3c6b3          	xor	a3,t2,a3
   135de:	8936                	mv	s2,a3
   135e0:	1f42                	slli	t5,t5,0x30
   135e2:	76fd                	lui	a3,0xfffff
   135e4:	030f5f13          	srli	t5,t5,0x30
   135e8:	8eb6                	mv	t4,a3
   135ea:	19c2                	slli	s3,s3,0x30
   135ec:	e0768693          	addi	a3,a3,-505 # ffffffffffffee07 <stderr@@GLIBC_2.25+0xfffffffffffe3dc7>
   135f0:	00df4333          	xor	t1,t5,a3
   135f4:	0309d993          	srli	s3,s3,0x30
   135f8:	006c4333          	xor	t1,s8,t1
   135fc:	00a9c533          	xor	a0,s3,a0
   13600:	6ca13023          	sd	a0,1728(sp)
   13604:	03031513          	slli	a0,t1,0x30
   13608:	9141                	srli	a0,a0,0x30
   1360a:	e52a                	sd	a0,136(sp)
   1360c:	01a5053b          	addw	a0,a0,s10
   13610:	1542                	slli	a0,a0,0x30
   13612:	47e13023          	sd	t5,1120(sp)
   13616:	73012683          	lw	a3,1840(sp)
   1361a:	38013f03          	ld	t5,896(sp)
   1361e:	9141                	srli	a0,a0,0x30
   13620:	22a13023          	sd	a0,544(sp)
   13624:	7542                	ld	a0,48(sp)
   13626:	03e686bb          	mulw	a3,a3,t5
   1362a:	0120c0b3          	xor	ra,ra,s2
   1362e:	8da9                	xor	a1,a1,a0
   13630:	01a5853b          	addw	a0,a1,s10
   13634:	31813383          	ld	t2,792(sp)
   13638:	5a113c23          	sd	ra,1464(sp)
   1363c:	64a12c23          	sw	a0,1624(sp)
   13640:	73812083          	lw	ra,1848(sp)
   13644:	6532                	ld	a0,264(sp)
   13646:	0133c3b3          	xor	t2,t2,s3
   1364a:	70713023          	sd	t2,1792(sp)
   1364e:	02a083bb          	mulw	t2,ra,a0
   13652:	53813583          	ld	a1,1336(sp)
   13656:	03069993          	slli	s3,a3,0x30
   1365a:	0309d993          	srli	s3,s3,0x30
   1365e:	76e5                	lui	a3,0xffff9
   13660:	00b9c5b3          	xor	a1,s3,a1
   13664:	36f1                	addiw	a3,a3,-4
   13666:	00d580bb          	addw	ra,a1,a3
   1366a:	41213823          	sd	s2,1040(sp)
   1366e:	2eb13c23          	sd	a1,760(sp)
   13672:	76112423          	sw	ra,1896(sp)
   13676:	013f49b3          	xor	s3,t5,s3
   1367a:	50812083          	lw	ra,1288(sp)
   1367e:	6f812f03          	lw	t5,1784(sp)
   13682:	13c2                	slli	t2,t2,0x30
   13684:	0303d393          	srli	t2,t2,0x30
   13688:	021f06bb          	mulw	a3,t5,ra
   1368c:	007505bb          	addw	a1,a0,t2
   13690:	74013d83          	ld	s11,1856(sp)
   13694:	03059513          	slli	a0,a1,0x30
   13698:	9141                	srli	a0,a0,0x30
   1369a:	85aa                	mv	a1,a0
   1369c:	39013f03          	ld	t5,912(sp)
   136a0:	01b54533          	xor	a0,a0,s11
   136a4:	1542                	slli	a0,a0,0x30
   136a6:	9141                	srli	a0,a0,0x30
   136a8:	00af4f33          	xor	t5,t5,a0
   136ac:	edfa                	sd	t5,216(sp)
   136ae:	0133cf33          	xor	t5,t2,s3
   136b2:	77e13823          	sd	t5,1904(sp)
   136b6:	33812f03          	lw	t5,824(sp)
   136ba:	16c2                	slli	a3,a3,0x30
   136bc:	92c1                	srli	a3,a3,0x30
   136be:	00df0f3b          	addw	t5,t5,a3
   136c2:	52b13c23          	sd	a1,1336(sp)
   136c6:	9da9                	addw	a1,a1,a0
   136c8:	32012083          	lw	ra,800(sp)
   136cc:	54a13023          	sd	a0,1344(sp)
   136d0:	73e12023          	sw	t5,1824(sp)
   136d4:	03059513          	slli	a0,a1,0x30
   136d8:	70812f03          	lw	t5,1800(sp)
   136dc:	75ce                	ld	a1,240(sp)
   136de:	0016833b          	addw	t1,a3,ra
   136e2:	6d812d83          	lw	s11,1752(sp)
   136e6:	00b6c0b3          	xor	ra,a3,a1
   136ea:	00df06bb          	addw	a3,t5,a3
   136ee:	31013583          	ld	a1,784(sp)
   136f2:	16c2                	slli	a3,a3,0x30
   136f4:	92c1                	srli	a3,a3,0x30
   136f6:	8db5                	xor	a1,a1,a3
   136f8:	9141                	srli	a0,a0,0x30
   136fa:	00158f3b          	addw	t5,a1,ra
   136fe:	30a13023          	sd	a0,768(sp)
   13702:	1d300513          	li	a0,467
   13706:	02a8853b          	mulw	a0,a7,a0
   1370a:	73e12c23          	sw	t5,1848(sp)
   1370e:	69d2                	ld	s3,272(sp)
   13710:	7971                	lui	s2,0xffffc
   13712:	03fd8f3b          	mulw	t5,s11,t6
   13716:	1542                	slli	a0,a0,0x30
   13718:	9141                	srli	a0,a0,0x30
   1371a:	71012d83          	lw	s11,1808(sp)
   1371e:	f5aa                	sd	a0,232(sp)
   13720:	27e12c23          	sw	t5,632(sp)
   13724:	6f11                	lui	t5,0x4
   13726:	a60f0f1b          	addiw	t5,t5,-1440
   1372a:	00af05bb          	addw	a1,t5,a0
   1372e:	6f72                	ld	t5,280(sp)
   13730:	00bf45b3          	xor	a1,t5,a1
   13734:	00a9cf33          	xor	t5,s3,a0
   13738:	0749099b          	addiw	s3,s2,116
   1373c:	01e989bb          	addw	s3,s3,t5
   13740:	31e13c23          	sd	t5,792(sp)
   13744:	33311c23          	sh	s3,824(sp)
   13748:	980e8f13          	addi	t5,t4,-1664 # 980 <fprintf@plt-0xfa50>
   1374c:	00a8c9b3          	xor	s3,a7,a0
   13750:	01e9ceb3          	xor	t4,s3,t5
   13754:	10012f03          	lw	t5,256(sp)
   13758:	15c2                	slli	a1,a1,0x30
   1375a:	91c1                	srli	a1,a1,0x30
   1375c:	33313023          	sd	s3,800(sp)
   13760:	01d5c9b3          	xor	s3,a1,t4
   13764:	03ed8ebb          	mulw	t4,s11,t5
   13768:	5d812d83          	lw	s11,1496(sp)
   1376c:	44012f03          	lw	t5,1088(sp)
   13770:	57313823          	sd	s3,1392(sp)
   13774:	6986                	ld	s3,64(sp)
   13776:	03ed8f3b          	mulw	t5,s11,t5
   1377a:	1ec2                	slli	t4,t4,0x30
   1377c:	030ede93          	srli	t4,t4,0x30
   13780:	006ec333          	xor	t1,t4,t1
   13784:	1342                	slli	t1,t1,0x30
   13786:	03035313          	srli	t1,t1,0x30
   1378a:	0060cdb3          	xor	s11,ra,t1
   1378e:	01d9ceb3          	xor	t4,s3,t4
   13792:	006686bb          	addw	a3,a3,t1
   13796:	71b13c23          	sd	s11,1816(sp)
   1379a:	73d13423          	sd	t4,1832(sp)
   1379e:	72d11823          	sh	a3,1840(sp)
   137a2:	3c812e83          	lw	t4,968(sp)
   137a6:	17012683          	lw	a3,368(sp)
   137aa:	20812303          	lw	t1,520(sp)
   137ae:	56012d83          	lw	s11,1376(sp)
   137b2:	03d686bb          	mulw	a3,a3,t4
   137b6:	030f1e93          	slli	t4,t5,0x30
   137ba:	030ede93          	srli	t4,t4,0x30
   137be:	01d3033b          	addw	t1,t1,t4
   137c2:	03031993          	slli	s3,t1,0x30
   137c6:	736d                	lui	t1,0xffffb
   137c8:	4f53031b          	addiw	t1,t1,1269
   137cc:	006e833b          	addw	t1,t4,t1
   137d0:	03031f13          	slli	t5,t1,0x30
   137d4:	030f5f13          	srli	t5,t5,0x30
   137d8:	f87a                	sd	t5,48(sp)
   137da:	6f0a                	ld	t5,128(sp)
   137dc:	0309d993          	srli	s3,s3,0x30
   137e0:	3dd13423          	sd	t4,968(sp)
   137e4:	01e9c333          	xor	t1,s3,t5
   137e8:	32812e83          	lw	t4,808(sp)
   137ec:	e59a                	sd	t1,200(sp)
   137ee:	1f812303          	lw	t1,504(sp)
   137f2:	16c2                	slli	a3,a3,0x30
   137f4:	92c1                	srli	a3,a3,0x30
   137f6:	026e833b          	mulw	t1,t4,t1
   137fa:	00dd8ebb          	addw	t4,s11,a3
   137fe:	01d5ceb3          	xor	t4,a1,t4
   13802:	1ec2                	slli	t4,t4,0x30
   13804:	55013d83          	ld	s11,1360(sp)
   13808:	030ede93          	srli	t4,t4,0x30
   1380c:	f9f6                	sd	t4,240(sp)
   1380e:	3d013e83          	ld	t4,976(sp)
   13812:	01b6c6b3          	xor	a3,a3,s11
   13816:	5e012d83          	lw	s11,1504(sp)
   1381a:	00dec6b3          	xor	a3,t4,a3
   1381e:	011686bb          	addw	a3,a3,a7
   13822:	16c2                	slli	a3,a3,0x30
   13824:	92c1                	srli	a3,a3,0x30
   13826:	00d8c8b3          	xor	a7,a7,a3
   1382a:	8546                	mv	a0,a7
   1382c:	6a012883          	lw	a7,1696(sp)
   13830:	32d13423          	sd	a3,808(sp)
   13834:	1342                	slli	t1,t1,0x30
   13836:	031d86bb          	mulw	a3,s11,a7
   1383a:	5f013d83          	ld	s11,1520(sp)
   1383e:	588e                	lw	a7,224(sp)
   13840:	03035313          	srli	t1,t1,0x30
   13844:	01b34f33          	xor	t5,t1,s11
   13848:	011f08bb          	addw	a7,t5,a7
   1384c:	3d112823          	sw	a7,976(sp)
   13850:	21012883          	lw	a7,528(sp)
   13854:	7f42                	ld	t5,48(sp)
   13856:	32a13823          	sd	a0,816(sp)
   1385a:	0068833b          	addw	t1,a7,t1
   1385e:	03031893          	slli	a7,t1,0x30
   13862:	0308d893          	srli	a7,a7,0x30
   13866:	8ec6                	mv	t4,a7
   13868:	f2c6                	sd	a7,352(sp)
   1386a:	68ae                	ld	a7,200(sp)
   1386c:	2b813303          	ld	t1,696(sp)
   13870:	6d9d                	lui	s11,0x7
   13872:	011ec8b3          	xor	a7,t4,a7
   13876:	011f48b3          	xor	a7,t5,a7
   1387a:	5f113023          	sd	a7,1504(sp)
   1387e:	0749089b          	addiw	a7,s2,116
   13882:	00a888bb          	addw	a7,a7,a0
   13886:	55111823          	sh	a7,1360(sp)
   1388a:	26012883          	lw	a7,608(sp)
   1388e:	dc000f13          	li	t5,-576
   13892:	34ad8d9b          	addiw	s11,s11,842
   13896:	03e88f3b          	mulw	t5,a7,t5
   1389a:	03069893          	slli	a7,a3,0x30
   1389e:	0308d893          	srli	a7,a7,0x30
   138a2:	011346b3          	xor	a3,t1,a7
   138a6:	434a                	lw	t1,144(sp)
   138a8:	44d13023          	sd	a3,1088(sp)
   138ac:	ffc6                	sd	a7,504(sp)
   138ae:	26813883          	ld	a7,616(sp)
   138b2:	026a06bb          	mulw	a3,s4,t1
   138b6:	01e8ca33          	xor	s4,a7,t5
   138ba:	e952                	sd	s4,144(sp)
   138bc:	2d012a03          	lw	s4,720(sp)
   138c0:	4b012303          	lw	t1,1200(sp)
   138c4:	2a012883          	lw	a7,672(sp)
   138c8:	696a                	ld	s2,152(sp)
   138ca:	026a033b          	mulw	t1,s4,t1
   138ce:	6a19                	lui	s4,0x6
   138d0:	3d3a0a13          	addi	s4,s4,979 # 63d3 <fprintf@plt-0x9ffd>
   138d4:	0146c6b3          	xor	a3,a3,s4
   138d8:	03069a13          	slli	s4,a3,0x30
   138dc:	030a5a13          	srli	s4,s4,0x30
   138e0:	014886bb          	addw	a3,a7,s4
   138e4:	00d948b3          	xor	a7,s2,a3
   138e8:	67113023          	sd	a7,1632(sp)
   138ec:	29812683          	lw	a3,664(sp)
   138f0:	68012883          	lw	a7,1664(sp)
   138f4:	8ed2                	mv	t4,s4
   138f6:	8a76                	mv	s4,t4
   138f8:	02d886bb          	mulw	a3,a7,a3
   138fc:	03031893          	slli	a7,t1,0x30
   13900:	0308d893          	srli	a7,a7,0x30
   13904:	27113423          	sd	a7,616(sp)
   13908:	1c812303          	lw	t1,456(sp)
   1390c:	01b888bb          	addw	a7,a7,s11
   13910:	69012d83          	lw	s11,1680(sp)
   13914:	0068833b          	addw	t1,a7,t1
   13918:	5c612c23          	sw	t1,1496(sp)
   1391c:	29413c23          	sd	s4,664(sp)
   13920:	032d88bb          	mulw	a7,s11,s2
   13924:	16c2                	slli	a3,a3,0x30
   13926:	92c1                	srli	a3,a3,0x30
   13928:	00dec333          	xor	t1,t4,a3
   1392c:	24613423          	sd	t1,584(sp)
   13930:	52012e83          	lw	t4,1312(sp)
   13934:	51812303          	lw	t1,1304(sp)
   13938:	18c2                	slli	a7,a7,0x30
   1393a:	0308d893          	srli	a7,a7,0x30
   1393e:	03d3033b          	mulw	t1,t1,t4
   13942:	011686bb          	addw	a3,a3,a7
   13946:	6eb6                	ld	t4,328(sp)
   13948:	16c2                	slli	a3,a3,0x30
   1394a:	92c1                	srli	a3,a3,0x30
   1394c:	00decdb3          	xor	s11,t4,a3
   13950:	69b13023          	sd	s11,1664(sp)
   13954:	15012e83          	lw	t4,336(sp)
   13958:	37012d83          	lw	s11,880(sp)
   1395c:	1342                	slli	t1,t1,0x30
   1395e:	03be8ebb          	mulw	t4,t4,s11
   13962:	03035313          	srli	t1,t1,0x30
   13966:	001340b3          	xor	ra,t1,ra
   1396a:	28613023          	sd	t1,640(sp)
   1396e:	74113023          	sd	ra,1856(sp)
   13972:	49812303          	lw	t1,1176(sp)
   13976:	68812083          	lw	ra,1672(sp)
   1397a:	75812d83          	lw	s11,1880(sp)
   1397e:	0260833b          	mulw	t1,ra,t1
   13982:	38813083          	ld	ra,904(sp)
   13986:	1ec2                	slli	t4,t4,0x30
   13988:	030ede93          	srli	t4,t4,0x30
   1398c:	001ecf33          	xor	t5,t4,ra
   13990:	37812083          	lw	ra,888(sp)
   13994:	01d08ebb          	addw	t4,ra,t4
   13998:	01df4eb3          	xor	t4,t5,t4
   1399c:	01d3ceb3          	xor	t4,t2,t4
   139a0:	030e9093          	slli	ra,t4,0x30
   139a4:	0300d093          	srli	ra,ra,0x30
   139a8:	8e86                	mv	t4,ra
   139aa:	60b2                	ld	ra,264(sp)
   139ac:	006a4333          	xor	t1,s4,t1
   139b0:	03031a13          	slli	s4,t1,0x30
   139b4:	01d0c0b3          	xor	ra,ra,t4
   139b8:	76113c23          	sd	ra,1912(sp)
   139bc:	36012083          	lw	ra,864(sp)
   139c0:	030a5a13          	srli	s4,s4,0x30
   139c4:	7375                	lui	t1,0xffffd
   139c6:	00da06bb          	addw	a3,s4,a3
   139ca:	839a                	mv	t2,t1
   139cc:	3633031b          	addiw	t1,t1,867
   139d0:	51d13423          	sd	t4,1288(sp)
   139d4:	021d8ebb          	mulw	t4,s11,ra
   139d8:	03069093          	slli	ra,a3,0x30
   139dc:	006a06bb          	addw	a3,s4,t1
   139e0:	03069313          	slli	t1,a3,0x30
   139e4:	014946b3          	xor	a3,s2,s4
   139e8:	011686bb          	addw	a3,a3,a7
   139ec:	03035313          	srli	t1,t1,0x30
   139f0:	8536                	mv	a0,a3
   139f2:	26613023          	sd	t1,608(sp)
   139f6:	14012683          	lw	a3,320(sp)
   139fa:	13012d83          	lw	s11,304(sp)
   139fe:	030e9893          	slli	a7,t4,0x30
   13a02:	0308d893          	srli	a7,a7,0x30
   13a06:	03b686bb          	mulw	a3,a3,s11
   13a0a:	75013d83          	ld	s11,1872(sp)
   13a0e:	0300d093          	srli	ra,ra,0x30
   13a12:	10d12423          	sw	a3,264(sp)
   13a16:	01b8c6b3          	xor	a3,a7,s11
   13a1a:	e1138d9b          	addiw	s11,t2,-495
   13a1e:	01b6833b          	addw	t1,a3,s11
   13a22:	73ea                	ld	t2,184(sp)
   13a24:	1342                	slli	t1,t1,0x30
   13a26:	03035313          	srli	t1,t1,0x30
   13a2a:	2e613023          	sd	t1,736(sp)
   13a2e:	0113c333          	xor	t1,t2,a7
   13a32:	0153033b          	addw	t1,t1,s5
   13a36:	03031393          	slli	t2,t1,0x30
   13a3a:	0303d393          	srli	t2,t2,0x30
   13a3e:	00788dbb          	addw	s11,a7,t2
   13a42:	4e713023          	sd	t2,1248(sp)
   13a46:	75b12e23          	sw	s11,1884(sp)
   13a4a:	40813383          	ld	t2,1032(sp)
   13a4e:	5da6                	lw	s11,104(sp)
   13a50:	530a                	lw	t1,160(sp)
   13a52:	00daceb3          	xor	t4,s5,a3
   13a56:	027d88bb          	mulw	a7,s11,t2
   13a5a:	6a812d83          	lw	s11,1704(sp)
   13a5e:	01d686bb          	addw	a3,a3,t4
   13a62:	18c2                	slli	a7,a7,0x30
   13a64:	026d833b          	mulw	t1,s11,t1
   13a68:	0308d893          	srli	a7,a7,0x30
   13a6c:	01138f3b          	addw	t5,t2,a7
   13a70:	19812d83          	lw	s11,408(sp)
   13a74:	030f1393          	slli	t2,t5,0x30
   13a78:	0303d393          	srli	t2,t2,0x30
   13a7c:	fa9e                	sd	t2,368(sp)
   13a7e:	011d88bb          	addw	a7,s11,a7
   13a82:	1c012383          	lw	t2,448(sp)
   13a86:	1b012d83          	lw	s11,432(sp)
   13a8a:	027d8f3b          	mulw	t5,s11,t2
   13a8e:	2c012d83          	lw	s11,704(sp)
   13a92:	23012383          	lw	t2,560(sp)
   13a96:	01b3033b          	addw	t1,t1,s11
   13a9a:	03031d93          	slli	s11,t1,0x30
   13a9e:	23812303          	lw	t1,568(sp)
   13aa2:	030ddd93          	srli	s11,s11,0x30
   13aa6:	39b13423          	sd	s11,904(sp)
   13aaa:	0263833b          	mulw	t1,t2,t1
   13aae:	1b812383          	lw	t2,440(sp)
   13ab2:	007f0f3b          	addw	t5,t5,t2
   13ab6:	43c2                	lw	t2,16(sp)
   13ab8:	007f0f3b          	addw	t5,t5,t2
   13abc:	030f1393          	slli	t2,t5,0x30
   13ac0:	0303d393          	srli	t2,t2,0x30
   13ac4:	8d9e                	mv	s11,t2
   13ac6:	36713823          	sd	t2,880(sp)
   13aca:	43a2                	lw	t2,8(sp)
   13acc:	007d8f3b          	addw	t5,s11,t2
   13ad0:	5de6                	lw	s11,120(sp)
   13ad2:	1f42                	slli	t5,t5,0x30
   13ad4:	030f5f13          	srli	t5,t5,0x30
   13ad8:	038d8c3b          	mulw	s8,s11,s8
   13adc:	ff7a                	sd	t5,440(sp)
   13ade:	7f65                	lui	t5,0xffff9
   13ae0:	53012d83          	lw	s11,1328(sp)
   13ae4:	13812823          	sw	s8,304(sp)
   13ae8:	03031c13          	slli	s8,t1,0x30
   13aec:	030c5c13          	srli	s8,s8,0x30
   13af0:	fce2                	sd	s8,120(sp)
   13af2:	e70f0c1b          	addiw	s8,t5,-400
   13af6:	038a833b          	mulw	t1,s5,s8
   13afa:	35812c03          	lw	s8,856(sp)
   13afe:	035c093b          	mulw	s2,s8,s5
   13b02:	03031a93          	slli	s5,t1,0x30
   13b06:	34012303          	lw	t1,832(sp)
   13b0a:	6c0e                	ld	s8,192(sp)
   13b0c:	030ada93          	srli	s5,s5,0x30
   13b10:	018ac3b3          	xor	t2,s5,s8
   13b14:	76713023          	sd	t2,1888(sp)
   13b18:	4b513823          	sd	s5,1200(sp)
   13b1c:	03b3033b          	mulw	t1,t1,s11
   13b20:	1942                	slli	s2,s2,0x30
   13b22:	03095913          	srli	s2,s2,0x30
   13b26:	012acab3          	xor	s5,s5,s2
   13b2a:	23513c23          	sd	s5,568(sp)
   13b2e:	01894ab3          	xor	s5,s2,s8
   13b32:	53513823          	sd	s5,1328(sp)
   13b36:	4946                	lw	s2,80(sp)
   13b38:	6ae6                	ld	s5,88(sp)
   13b3a:	59012d83          	lw	s11,1424(sp)
   13b3e:	006c4333          	xor	t1,s8,t1
   13b42:	03031393          	slli	t2,t1,0x30
   13b46:	0303d393          	srli	t2,t2,0x30
   13b4a:	00d3c6b3          	xor	a3,t2,a3
   13b4e:	03069c13          	slli	s8,a3,0x30
   13b52:	03590f3b          	mulw	t5,s2,s5
   13b56:	030c5c13          	srli	s8,s8,0x30
   13b5a:	16812903          	lw	s2,360(sp)
   13b5e:	2d813c23          	sd	s8,728(sp)
   13b62:	59812c03          	lw	s8,1432(sp)
   13b66:	43012683          	lw	a3,1072(sp)
   13b6a:	032c0c3b          	mulw	s8,s8,s2
   13b6e:	6962                	ld	s2,24(sp)
   13b70:	1f42                	slli	t5,t5,0x30
   13b72:	030f5f13          	srli	t5,t5,0x30
   13b76:	01eacab3          	xor	s5,s5,t5
   13b7a:	2d513823          	sd	s5,720(sp)
   13b7e:	7ad6                	ld	s5,368(sp)
   13b80:	02d906bb          	mulw	a3,s2,a3
   13b84:	1c42                	slli	s8,s8,0x30
   13b86:	030c5c13          	srli	s8,s8,0x30
   13b8a:	018acab3          	xor	s5,s5,s8
   13b8e:	ea56                	sd	s5,272(sp)
   13b90:	1e012a83          	lw	s5,480(sp)
   13b94:	011c48b3          	xor	a7,s8,a7
   13b98:	03089c13          	slli	s8,a7,0x30
   13b9c:	030c5c13          	srli	s8,s8,0x30
   13ba0:	ef62                	sd	s8,408(sp)
   13ba2:	16c2                	slli	a3,a3,0x30
   13ba4:	92c1                	srli	a3,a3,0x30
   13ba6:	0356063b          	mulw	a2,a2,s5
   13baa:	0086c8b3          	xor	a7,a3,s0
   13bae:	18c2                	slli	a7,a7,0x30
   13bb0:	641d                	lui	s0,0x7
   13bb2:	0308d893          	srli	a7,a7,0x30
   13bb6:	7bd40413          	addi	s0,s0,1981 # 77bd <fprintf@plt-0x8c13>
   13bba:	8346                	mv	t1,a7
   13bbc:	8c35                	xor	s0,s0,a3
   13bbe:	58813c23          	sd	s0,1432(sp)
   13bc2:	0066843b          	addw	s0,a3,t1
   13bc6:	037d8bbb          	mulw	s7,s11,s7
   13bca:	5c812c03          	lw	s8,1480(sp)
   13bce:	58812823          	sw	s0,1424(sp)
   13bd2:	36012683          	lw	a3,864(sp)
   13bd6:	546a                	lw	s0,184(sp)
   13bd8:	011c08bb          	addw	a7,s8,a7
   13bdc:	18c2                	slli	a7,a7,0x30
   13bde:	1642                	slli	a2,a2,0x30
   13be0:	9241                	srli	a2,a2,0x30
   13be2:	0308d893          	srli	a7,a7,0x30
   13be6:	028686bb          	mulw	a3,a3,s0
   13bea:	4f813403          	ld	s0,1272(sp)
   13bee:	39113023          	sd	a7,896(sp)
   13bf2:	5a813d83          	ld	s11,1448(sp)
   13bf6:	008648b3          	xor	a7,a2,s0
   13bfa:	4f012403          	lw	s0,1264(sp)
   13bfe:	1bc2                	slli	s7,s7,0x30
   13c00:	030bdb93          	srli	s7,s7,0x30
   13c04:	9c31                	addw	s0,s0,a2
   13c06:	1442                	slli	s0,s0,0x30
   13c08:	011b4b33          	xor	s6,s6,a7
   13c0c:	00fbcab3          	xor	s5,s7,a5
   13c10:	9041                	srli	s0,s0,0x30
   13c12:	8c1a                	mv	s8,t1
   13c14:	63513823          	sd	s5,1584(sp)
   13c18:	01644333          	xor	t1,s0,s6
   13c1c:	01b44ab3          	xor	s5,s0,s11
   13c20:	6f513823          	sd	s5,1776(sp)
   13c24:	70613423          	sd	t1,1800(sp)
   13c28:	2a812a83          	lw	s5,680(sp)
   13c2c:	17812303          	lw	t1,376(sp)
   13c30:	49113c23          	sd	a7,1176(sp)
   13c34:	20013883          	ld	a7,512(sp)
   13c38:	026a8abb          	mulw	s5,s5,t1
   13c3c:	01d68ebb          	addw	t4,a3,t4
   13c40:	00c8c8b3          	xor	a7,a7,a2
   13c44:	016888bb          	addw	a7,a7,s6
   13c48:	030e9693          	slli	a3,t4,0x30
   13c4c:	92c1                	srli	a3,a3,0x30
   13c4e:	23512823          	sw	s5,560(sp)
   13c52:	03089a93          	slli	s5,a7,0x30
   13c56:	030ada93          	srli	s5,s5,0x30
   13c5a:	eab6                	sd	a3,336(sp)
   13c5c:	2b513423          	sd	s5,680(sp)
   13c60:	2f013a83          	ld	s5,752(sp)
   13c64:	30812683          	lw	a3,776(sp)
   13c68:	37813c23          	sd	s8,888(sp)
   13c6c:	01564633          	xor	a2,a2,s5
   13c70:	70c13823          	sd	a2,1808(sp)
   13c74:	18012603          	lw	a2,384(sp)
   13c78:	6aa2                	ld	s5,8(sp)
   13c7a:	64012d83          	lw	s11,1600(sp)
   13c7e:	02d6033b          	mulw	t1,a2,a3
   13c82:	21812603          	lw	a2,536(sp)
   13c86:	41812683          	lw	a3,1048(sp)
   13c8a:	02d606bb          	mulw	a3,a2,a3
   13c8e:	03031613          	slli	a2,t1,0x30
   13c92:	9241                	srli	a2,a2,0x30
   13c94:	8332                	mv	t1,a2
   13c96:	006ac633          	xor	a2,s5,t1
   13c9a:	f032                	sd	a2,32(sp)
   13c9c:	0064863b          	addw	a2,s1,t1
   13ca0:	56c11023          	sh	a2,1376(sp)
   13ca4:	22812483          	lw	s1,552(sp)
   13ca8:	44812603          	lw	a2,1096(sp)
   13cac:	16c2                	slli	a3,a3,0x30
   13cae:	92c1                	srli	a3,a3,0x30
   13cb0:	0126ceb3          	xor	t4,a3,s2
   13cb4:	018ec933          	xor	s2,t4,s8
   13cb8:	1e812c03          	lw	s8,488(sp)
   13cbc:	0296063b          	mulw	a2,a2,s1
   13cc0:	2f012483          	lw	s1,752(sp)
   13cc4:	018686bb          	addw	a3,a3,s8
   13cc8:	42812c03          	lw	s8,1064(sp)
   13ccc:	e39a                	sd	t1,448(sp)
   13cce:	fb4a                	sd	s2,432(sp)
   13cd0:	01dc08bb          	addw	a7,s8,t4
   13cd4:	0116cc33          	xor	s8,a3,a7
   13cd8:	76e9                	lui	a3,0xffffa
   13cda:	5b813423          	sd	s8,1448(sp)
   13cde:	2ac68c1b          	addiw	s8,a3,684
   13ce2:	038486bb          	mulw	a3,s1,s8
   13ce6:	60012483          	lw	s1,1536(sp)
   13cea:	35d13023          	sd	t4,832(sp)
   13cee:	9e25                	addw	a2,a2,s1
   13cf0:	54e6                	lw	s1,120(sp)
   13cf2:	03061313          	slli	t1,a2,0x30
   13cf6:	03035313          	srli	t1,t1,0x30
   13cfa:	006484bb          	addw	s1,s1,t1
   13cfe:	24013603          	ld	a2,576(sp)
   13d02:	22912423          	sw	s1,552(sp)
   13d06:	61813483          	ld	s1,1560(sp)
   13d0a:	00c34633          	xor	a2,t1,a2
   13d0e:	e332                	sd	a2,384(sp)
   13d10:	8e25                	xor	a2,a2,s1
   13d12:	4ec13823          	sd	a2,1264(sp)
   13d16:	3e012603          	lw	a2,992(sp)
   13d1a:	02ed873b          	mulw	a4,s11,a4
   13d1e:	27812d83          	lw	s11,632(sp)
   13d22:	03069913          	slli	s2,a3,0x30
   13d26:	03095913          	srli	s2,s2,0x30
   13d2a:	0356063b          	mulw	a2,a2,s5
   13d2e:	1642                	slli	a2,a2,0x30
   13d30:	9241                	srli	a2,a2,0x30
   13d32:	e2b2                	sd	a2,320(sp)
   13d34:	5662                	lw	a2,56(sp)
   13d36:	02cd86bb          	mulw	a3,s11,a2
   13d3a:	46813603          	ld	a2,1128(sp)
   13d3e:	20012c03          	lw	s8,512(sp)
   13d42:	4d013d83          	ld	s11,1232(sp)
   13d46:	8f31                	xor	a4,a4,a2
   13d48:	5ce13423          	sd	a4,1480(sp)
   13d4c:	4e812603          	lw	a2,1256(sp)
   13d50:	6e012703          	lw	a4,1760(sp)
   13d54:	02c7073b          	mulw	a4,a4,a2
   13d58:	4c013603          	ld	a2,1216(sp)
   13d5c:	03069893          	slli	a7,a3,0x30
   13d60:	0308d893          	srli	a7,a7,0x30
   13d64:	01164eb3          	xor	t4,a2,a7
   13d68:	010ec633          	xor	a2,t4,a6
   13d6c:	76f5                	lui	a3,0xffffd
   13d6e:	fc32                	sd	a2,56(sp)
   13d70:	d2968613          	addi	a2,a3,-727 # ffffffffffffcd29 <stderr@@GLIBC_2.25+0xfffffffffffe1ce9>
   13d74:	00c8c633          	xor	a2,a7,a2
   13d78:	6cc13c23          	sd	a2,1752(sp)
   13d7c:	6c012603          	lw	a2,1728(sp)
   13d80:	1742                	slli	a4,a4,0x30
   13d82:	9341                	srli	a4,a4,0x30
   13d84:	038606bb          	mulw	a3,a2,s8
   13d88:	45812c03          	lw	s8,1112(sp)
   13d8c:	7669                	lui	a2,0xffffa
   13d8e:	2ac60613          	addi	a2,a2,684 # ffffffffffffa2ac <stderr@@GLIBC_2.25+0xfffffffffffdf26c>
   13d92:	34e13c23          	sd	a4,856(sp)
   13d96:	8f31                	xor	a4,a4,a2
   13d98:	00e94633          	xor	a2,s2,a4
   13d9c:	6ec13c23          	sd	a2,1784(sp)
   13da0:	60812603          	lw	a2,1544(sp)
   13da4:	03cc073b          	mulw	a4,s8,t3
   13da8:	6e812c03          	lw	s8,1768(sp)
   13dac:	01868c3b          	addw	s8,a3,s8
   13db0:	4f812423          	sw	s8,1256(sp)
   13db4:	4c4e                	lw	s8,208(sp)
   13db6:	2b812683          	lw	a3,696(sp)
   13dba:	0386063b          	mulw	a2,a2,s8
   13dbe:	1742                	slli	a4,a4,0x30
   13dc0:	9341                	srli	a4,a4,0x30
   13dc2:	00e34c33          	xor	s8,t1,a4
   13dc6:	24e13023          	sd	a4,576(sp)
   13dca:	3ec12023          	sw	a2,992(sp)
   13dce:	40012603          	lw	a2,1024(sp)
   13dd2:	00cc063b          	addw	a2,s8,a2
   13dd6:	4cc12023          	sw	a2,1216(sp)
   13dda:	4a012603          	lw	a2,1184(sp)
   13dde:	02c6873b          	mulw	a4,a3,a2
   13de2:	1c812683          	lw	a3,456(sp)
   13de6:	764a                	ld	a2,176(sp)
   13de8:	03b6833b          	mulw	t1,a3,s11
   13dec:	1742                	slli	a4,a4,0x30
   13dee:	9341                	srli	a4,a4,0x30
   13df0:	00e646b3          	xor	a3,a2,a4
   13df4:	6619                	lui	a2,0x6
   13df6:	a686049b          	addiw	s1,a2,-1432
   13dfa:	0096863b          	addw	a2,a3,s1
   13dfe:	1642                	slli	a2,a2,0x30
   13e00:	54ee                	lw	s1,248(sp)
   13e02:	9241                	srli	a2,a2,0x30
   13e04:	f132                	sd	a2,160(sp)
   13e06:	1342                	slli	t1,t1,0x30
   13e08:	7679                	lui	a2,0xffffe
   13e0a:	03035313          	srli	t1,t1,0x30
   13e0e:	47f60a9b          	addiw	s5,a2,1151
   13e12:	0354863b          	mulw	a2,s1,s5
   13e16:	01d34ab3          	xor	s5,t1,t4
   13e1a:	006dceb3          	xor	t4,s11,t1
   13e1e:	6dd13023          	sd	t4,1728(sp)
   13e22:	7eaa                	ld	t4,168(sp)
   13e24:	47513423          	sd	s5,1128(sp)
   13e28:	01daceb3          	xor	t4,s5,t4
   13e2c:	8af6                	mv	s5,t4
   13e2e:	7ee2                	ld	t4,56(sp)
   13e30:	fd56                	sd	s5,184(sp)
   13e32:	1642                	slli	a2,a2,0x30
   13e34:	015eceb3          	xor	t4,t4,s5
   13e38:	27d13c23          	sd	t4,632(sp)
   13e3c:	76812483          	lw	s1,1896(sp)
   13e40:	53812303          	lw	t1,1336(sp)
   13e44:	9241                	srli	a2,a2,0x30
   13e46:	5b813d83          	ld	s11,1464(sp)
   13e4a:	0264833b          	mulw	t1,s1,t1
   13e4e:	2f812483          	lw	s1,760(sp)
   13e52:	9cb1                	addw	s1,s1,a2
   13e54:	78912023          	sw	s1,1920(sp)
   13e58:	2b012483          	lw	s1,688(sp)
   13e5c:	03948abb          	mulw	s5,s1,s9
   13e60:	03031e93          	slli	t4,t1,0x30
   13e64:	030ede93          	srli	t4,t4,0x30
   13e68:	01d644b3          	xor	s1,a2,t4
   13e6c:	737d                	lui	t1,0xfffff
   13e6e:	76913423          	sd	s1,1896(sp)
   13e72:	b693049b          	addiw	s1,t1,-1175
   13e76:	21d13c23          	sd	t4,536(sp)
   13e7a:	019a8abb          	addw	s5,s5,s9
   13e7e:	00da8abb          	addw	s5,s5,a3
   13e82:	6b012c83          	lw	s9,1712(sp)
   13e86:	02998ebb          	mulw	t4,s3,s1
   13e8a:	030a9993          	slli	s3,s5,0x30
   13e8e:	0309d993          	srli	s3,s3,0x30
   13e92:	013c863b          	addw	a2,s9,s3
   13e96:	2c013a83          	ld	s5,704(sp)
   13e9a:	1642                	slli	a2,a2,0x30
   13e9c:	9241                	srli	a2,a2,0x30
   13e9e:	45313c23          	sd	s3,1112(sp)
   13ea2:	00c9c9b3          	xor	s3,s3,a2
   13ea6:	00ca86bb          	addw	a3,s5,a2
   13eaa:	69313823          	sd	s3,1680(sp)
   13eae:	598a                	lw	s3,160(sp)
   13eb0:	03069c93          	slli	s9,a3,0x30
   13eb4:	030cdc93          	srli	s9,s9,0x30
   13eb8:	45913423          	sd	s9,1096(sp)
   13ebc:	01998cbb          	addw	s9,s3,s9
   13ec0:	41012683          	lw	a3,1040(sp)
   13ec4:	6b912823          	sw	s9,1712(sp)
   13ec8:	4cca                	lw	s9,144(sp)
   13eca:	4b812483          	lw	s1,1208(sp)
   13ece:	1ec2                	slli	t4,t4,0x30
   13ed0:	02dc89bb          	mulw	s3,s9,a3
   13ed4:	25812683          	lw	a3,600(sp)
   13ed8:	27012c83          	lw	s9,624(sp)
   13edc:	030ede93          	srli	t4,t4,0x30
   13ee0:	02dc833b          	mulw	t1,s9,a3
   13ee4:	44012c83          	lw	s9,1088(sp)
   13ee8:	1f812683          	lw	a3,504(sp)
   13eec:	19c2                	slli	s3,s3,0x30
   13eee:	0309d993          	srli	s3,s3,0x30
   13ef2:	02dc86bb          	mulw	a3,s9,a3
   13ef6:	006dc333          	xor	t1,s11,t1
   13efa:	7cf9                	lui	s9,0xffffe
   13efc:	0069c333          	xor	t1,s3,t1
   13f00:	07ec8c9b          	addiw	s9,s9,126
   13f04:	006c833b          	addw	t1,s9,t1
   13f08:	03031c93          	slli	s9,t1,0x30
   13f0c:	030cdc93          	srli	s9,s9,0x30
   13f10:	e966                	sd	s9,144(sp)
   13f12:	26812c83          	lw	s9,616(sp)
   13f16:	16c2                	slli	a3,a3,0x30
   13f18:	92c1                	srli	a3,a3,0x30
   13f1a:	8f35                	xor	a4,a4,a3
   13f1c:	029c833b          	mulw	t1,s9,s1
   13f20:	8cd6                	mv	s9,s5
   13f22:	00ea8abb          	addw	s5,s5,a4
   13f26:	1ac2                	slli	s5,s5,0x30
   13f28:	8f31                	xor	a4,a4,a2
   13f2a:	764a                	ld	a2,176(sp)
   13f2c:	030ada93          	srli	s5,s5,0x30
   13f30:	68e13423          	sd	a4,1672(sp)
   13f34:	0196c733          	xor	a4,a3,s9
   13f38:	00eaccb3          	xor	s9,s5,a4
   13f3c:	6b913423          	sd	s9,1704(sp)
   13f40:	00c6ccb3          	xor	s9,a3,a2
   13f44:	25513c23          	sd	s5,600(sp)
   13f48:	6b913023          	sd	s9,1696(sp)
   13f4c:	52813a83          	ld	s5,1320(sp)
   13f50:	71812c83          	lw	s9,1816(sp)
   13f54:	7775                	lui	a4,0xffffd
   13f56:	035c86bb          	mulw	a3,s9,s5
   13f5a:	03031c93          	slli	s9,t1,0x30
   13f5e:	030cdc93          	srli	s9,s9,0x30
   13f62:	27913423          	sd	s9,616(sp)
   13f66:	3d012d83          	lw	s11,976(sp)
   13f6a:	5c8e                	lw	s9,224(sp)
   13f6c:	72012483          	lw	s1,1824(sp)
   13f70:	039d863b          	mulw	a2,s11,s9
   13f74:	16c2                	slli	a3,a3,0x30
   13f76:	7ce9                	lui	s9,0xffffa
   13f78:	92c1                	srli	a3,a3,0x30
   13f7a:	8366                	mv	t1,s9
   13f7c:	a74c8c9b          	addiw	s9,s9,-1420
   13f80:	01968cbb          	addw	s9,a3,s9
   13f84:	75912c23          	sw	s9,1880(sp)
   13f88:	26970c93          	addi	s9,a4,617 # ffffffffffffd269 <stderr@@GLIBC_2.25+0xfffffffffffe2229>
   13f8c:	0196ccb3          	xor	s9,a3,s9
   13f90:	10012d83          	lw	s11,256(sp)
   13f94:	75913823          	sd	s9,1872(sp)
   13f98:	51012c83          	lw	s9,1296(sp)
   13f9c:	00cec633          	xor	a2,t4,a2
   13fa0:	1642                	slli	a2,a2,0x30
   13fa2:	03bc873b          	mulw	a4,s9,s11
   13fa6:	28012c83          	lw	s9,640(sp)
   13faa:	9241                	srli	a2,a2,0x30
   13fac:	f4b2                	sd	a2,104(sp)
   13fae:	72813d83          	ld	s11,1832(sp)
   13fb2:	cd23031b          	addiw	t1,t1,-814
   13fb6:	0394863b          	mulw	a2,s1,s9
   13fba:	31013c83          	ld	s9,784(sp)
   13fbe:	1742                	slli	a4,a4,0x30
   13fc0:	9341                	srli	a4,a4,0x30
   13fc2:	01974cb3          	xor	s9,a4,s9
   13fc6:	71913c23          	sd	s9,1816(sp)
   13fca:	7cfd                	lui	s9,0xfffff
   13fcc:	934c8c9b          	addiw	s9,s9,-1740
   13fd0:	0197073b          	addw	a4,a4,s9
   13fd4:	73015483          	lhu	s1,1840(sp)
   13fd8:	1742                	slli	a4,a4,0x30
   13fda:	9341                	srli	a4,a4,0x30
   13fdc:	00eaccb3          	xor	s9,s5,a4
   13fe0:	01b74733          	xor	a4,a4,s11
   13fe4:	8f25                	xor	a4,a4,s1
   13fe6:	74815483          	lhu	s1,1864(sp)
   13fea:	4b913023          	sd	s9,1184(sp)
   13fee:	00cac633          	xor	a2,s5,a2
   13ff2:	009ccdb3          	xor	s11,s9,s1
   13ff6:	73b13023          	sd	s11,1824(sp)
   13ffa:	10812483          	lw	s1,264(sp)
   13ffe:	5dce                	lw	s11,240(sp)
   14000:	03071c93          	slli	s9,a4,0x30
   14004:	1642                	slli	a2,a2,0x30
   14006:	03b4873b          	mulw	a4,s1,s11
   1400a:	5d812d83          	lw	s11,1496(sp)
   1400e:	54aa                	lw	s1,168(sp)
   14010:	9241                	srli	a2,a2,0x30
   14012:	2cc13023          	sd	a2,704(sp)
   14016:	030cdc93          	srli	s9,s9,0x30
   1401a:	2b913c23          	sd	s9,696(sp)
   1401e:	7aea                	ld	s5,184(sp)
   14020:	029d863b          	mulw	a2,s11,s1
   14024:	33815483          	lhu	s1,824(sp)
   14028:	8f25                	xor	a4,a4,s1
   1402a:	03071c93          	slli	s9,a4,0x30
   1402e:	030cdc93          	srli	s9,s9,0x30
   14032:	0195c733          	xor	a4,a1,s9
   14036:	fdba                	sd	a4,248(sp)
   14038:	74c7071b          	addiw	a4,a4,1868
   1403c:	31913823          	sd	s9,784(sp)
   14040:	1742                	slli	a4,a4,0x30
   14042:	6c89                	lui	s9,0x2
   14044:	d30c8d93          	addi	s11,s9,-720 # 1d30 <fprintf@plt-0xe6a0>
   14048:	9341                	srli	a4,a4,0x30
   1404a:	1a812483          	lw	s1,424(sp)
   1404e:	32e13c23          	sd	a4,824(sp)
   14052:	01b74733          	xor	a4,a4,s11
   14056:	58812d83          	lw	s11,1416(sp)
   1405a:	03071c93          	slli	s9,a4,0x30
   1405e:	1642                	slli	a2,a2,0x30
   14060:	029d873b          	mulw	a4,s11,s1
   14064:	9241                	srli	a2,a2,0x30
   14066:	030cdc93          	srli	s9,s9,0x30
   1406a:	e666                	sd	s9,264(sp)
   1406c:	00c8ccb3          	xor	s9,a7,a2
   14070:	01564db3          	xor	s11,a2,s5
   14074:	006c833b          	addw	t1,s9,t1
   14078:	7669                	lui	a2,0xffffa
   1407a:	6fb13023          	sd	s11,1760(sp)
   1407e:	6e612423          	sw	t1,1768(sp)
   14082:	a5360d93          	addi	s11,a2,-1453 # ffffffffffff9a53 <stderr@@GLIBC_2.25+0xfffffffffffdea13>
   14086:	e266                	sd	s9,256(sp)
   14088:	01bccdb3          	xor	s11,s9,s11
   1408c:	13012483          	lw	s1,304(sp)
   14090:	6caa                	ld	s9,136(sp)
   14092:	19012303          	lw	t1,400(sp)
   14096:	1742                	slli	a4,a4,0x30
   14098:	0394863b          	mulw	a2,s1,s9
   1409c:	5a015483          	lhu	s1,1440(sp)
   140a0:	9341                	srli	a4,a4,0x30
   140a2:	006708bb          	addw	a7,a4,t1
   140a6:	53b13c23          	sd	s11,1336(sp)
   140aa:	630d                	lui	t1,0x3
   140ac:	57813d83          	ld	s11,1400(sp)
   140b0:	8f25                	xor	a4,a4,s1
   140b2:	86c30313          	addi	t1,t1,-1940 # 286c <fprintf@plt-0xdb64>
   140b6:	00674333          	xor	t1,a4,t1
   140ba:	011dc8b3          	xor	a7,s11,a7
   140be:	56613c23          	sd	t1,1400(sp)
   140c2:	5de6                	lw	s11,120(sp)
   140c4:	3f812303          	lw	t1,1016(sp)
   140c8:	18c2                	slli	a7,a7,0x30
   140ca:	0308d893          	srli	a7,a7,0x30
   140ce:	66813483          	ld	s1,1640(sp)
   140d2:	fa46                	sd	a7,304(sp)
   140d4:	026d88bb          	mulw	a7,s11,t1
   140d8:	03061713          	slli	a4,a2,0x30
   140dc:	9341                	srli	a4,a4,0x30
   140de:	00974633          	xor	a2,a4,s1
   140e2:	46013303          	ld	t1,1120(sp)
   140e6:	65812d83          	lw	s11,1624(sp)
   140ea:	1642                	slli	a2,a2,0x30
   140ec:	9241                	srli	a2,a2,0x30
   140ee:	48813a83          	ld	s5,1160(sp)
   140f2:	00c34333          	xor	t1,t1,a2
   140f6:	60613423          	sd	t1,1544(sp)
   140fa:	00ed833b          	addw	t1,s11,a4
   140fe:	00cccdb3          	xor	s11,s9,a2
   14102:	6609                	lui	a2,0x2
   14104:	00ed4d33          	xor	s10,s10,a4
   14108:	65b13c23          	sd	s11,1624(sp)
   1410c:	fb860d9b          	addiw	s11,a2,-72
   14110:	61a13c23          	sd	s10,1560(sp)
   14114:	03031d13          	slli	s10,t1,0x30
   14118:	035d833b          	mulw	t1,s11,s5
   1411c:	18012d83          	lw	s11,384(sp)
   14120:	18c2                	slli	a7,a7,0x30
   14122:	0308d893          	srli	a7,a7,0x30
   14126:	011d863b          	addw	a2,s11,a7
   1412a:	4dce                	lw	s11,208(sp)
   1412c:	1642                	slli	a2,a2,0x30
   1412e:	9241                	srli	a2,a2,0x30
   14130:	8cb2                	mv	s9,a2
   14132:	01b8863b          	addw	a2,a7,s11
   14136:	22812483          	lw	s1,552(sp)
   1413a:	1642                	slli	a2,a2,0x30
   1413c:	9241                	srli	a2,a2,0x30
   1413e:	011e4e33          	xor	t3,t3,a7
   14142:	f3b2                	sd	a2,480(sp)
   14144:	0188c633          	xor	a2,a7,s8
   14148:	ffb2                	sd	a2,504(sp)
   1414a:	f972                	sd	t3,176(sp)
   1414c:	0194863b          	addw	a2,s1,s9
   14150:	48012e03          	lw	t3,1152(sp)
   14154:	67012483          	lw	s1,1648(sp)
   14158:	1642                	slli	a2,a2,0x30
   1415a:	00674733          	xor	a4,a4,t1
   1415e:	9241                	srli	a2,a2,0x30
   14160:	fcb2                	sd	a2,120(sp)
   14162:	03c4863b          	mulw	a2,s1,t3
   14166:	03071e13          	slli	t3,a4,0x30
   1416a:	030d5d13          	srli	s10,s10,0x30
   1416e:	030e5e13          	srli	t3,t3,0x30
   14172:	41c13423          	sd	t3,1032(sp)
   14176:	01ae4e33          	xor	t3,t3,s10
   1417a:	29013303          	ld	t1,656(sp)
   1417e:	43c13823          	sd	t3,1072(sp)
   14182:	7eee4e13          	xori	t3,t3,2030
   14186:	8772                	mv	a4,t3
   14188:	8e6a                	mv	t3,s10
   1418a:	00ee44b3          	xor	s1,t3,a4
   1418e:	2b913823          	sd	s9,688(sp)
   14192:	43a13423          	sd	s10,1064(sp)
   14196:	60913023          	sd	s1,1536(sp)
   1419a:	00e34d33          	xor	s10,t1,a4
   1419e:	40e13823          	sd	a4,1040(sp)
   141a2:	23a13423          	sd	s10,552(sp)
   141a6:	47812d03          	lw	s10,1144(sp)
   141aa:	8daa                	mv	s11,a0
   141ac:	17812303          	lw	t1,376(sp)
   141b0:	035d08bb          	mulw	a7,s10,s5
   141b4:	49013d03          	ld	s10,1168(sp)
   141b8:	00cd4633          	xor	a2,s10,a2
   141bc:	00c9cd33          	xor	s10,s3,a2
   141c0:	5ba13023          	sd	s10,1440(sp)
   141c4:	14812d03          	lw	s10,328(sp)
   141c8:	7665                	lui	a2,0xffff9
   141ca:	f4d6049b          	addiw	s1,a2,-179
   141ce:	03aa073b          	mulw	a4,s4,s10
   141d2:	4d4a                	lw	s10,144(sp)
   141d4:	26013603          	ld	a2,608(sp)
   141d8:	01a88d3b          	addw	s10,a7,s10
   141dc:	5fa12823          	sw	s10,1520(sp)
   141e0:	2a012d03          	lw	s10,672(sp)
   141e4:	029d0d3b          	mulw	s10,s10,s1
   141e8:	03071c93          	slli	s9,a4,0x30
   141ec:	030cdc93          	srli	s9,s9,0x30
   141f0:	01964e33          	xor	t3,a2,s9
   141f4:	01be48b3          	xor	a7,t3,s11
   141f8:	23012483          	lw	s1,560(sp)
   141fc:	45c13023          	sd	t3,1088(sp)
   14200:	001ccdb3          	xor	s11,s9,ra
   14204:	67b13823          	sd	s11,1648(sp)
   14208:	38812d83          	lw	s11,904(sp)
   1420c:	51a12823          	sw	s10,1296(sp)
   14210:	03089d13          	slli	s10,a7,0x30
   14214:	030d5d13          	srli	s10,s10,0x30
   14218:	8aea                	mv	s5,s10
   1421a:	7d7d                	lui	s10,0xfffff
   1421c:	39fd0d1b          	addiw	s10,s10,927
   14220:	03a3063b          	mulw	a2,t1,s10
   14224:	41513c23          	sd	s5,1048(sp)
   14228:	03e4873b          	mulw	a4,s1,t5
   1422c:	03061d13          	slli	s10,a2,0x30
   14230:	030d5d13          	srli	s10,s10,0x30
   14234:	836a                	mv	t1,s10
   14236:	47012d03          	lw	s10,1136(sp)
   1423a:	22613823          	sd	t1,560(sp)
   1423e:	037d063b          	mulw	a2,s10,s7
   14242:	03071d13          	slli	s10,a4,0x30
   14246:	030d5d13          	srli	s10,s10,0x30
   1424a:	01af4f33          	xor	t5,t5,s10
   1424e:	53e13023          	sd	t5,1312(sp)
   14252:	24812f03          	lw	t5,584(sp)
   14256:	01a344b3          	xor	s1,t1,s10
   1425a:	50913c23          	sd	s1,1304(sp)
   1425e:	62812483          	lw	s1,1576(sp)
   14262:	2ba13023          	sd	s10,672(sp)
   14266:	021f073b          	mulw	a4,t5,ra
   1426a:	65012f03          	lw	t5,1616(sp)
   1426e:	1642                	slli	a2,a2,0x30
   14270:	9241                	srli	a2,a2,0x30
   14272:	00cf0e3b          	addw	t3,t5,a2
   14276:	030e1313          	slli	t1,t3,0x30
   1427a:	00c48e3b          	addw	t3,s1,a2
   1427e:	1e42                	slli	t3,t3,0x30
   14280:	03035313          	srli	t1,t1,0x30
   14284:	030e5e13          	srli	t3,t3,0x30
   14288:	006e4633          	xor	a2,t3,t1
   1428c:	0197073b          	addw	a4,a4,s9
   14290:	00c7cd33          	xor	s10,a5,a2
   14294:	00e0c733          	xor	a4,ra,a4
   14298:	21a13023          	sd	s10,512(sp)
   1429c:	03071d13          	slli	s10,a4,0x30
   142a0:	23812783          	lw	a5,568(sp)
   142a4:	030d5d13          	srli	s10,s10,0x30
   142a8:	03bd8dbb          	mulw	s11,s11,s11
   142ac:	01aac0b3          	xor	ra,s5,s10
   142b0:	6ad2                	ld	s5,272(sp)
   142b2:	6705                	lui	a4,0x1
   142b4:	851a                	mv	a0,t1
   142b6:	22113c23          	sd	ra,568(sp)
   142ba:	70e9                	lui	ra,0xffffa
   142bc:	6c708093          	addi	ra,ra,1735 # ffffffffffffa6c7 <stderr@@GLIBC_2.25+0xfffffffffffdf687>
   142c0:	001d40b3          	xor	ra,s10,ra
   142c4:	64113823          	sd	ra,1616(sp)
   142c8:	027783bb          	mulw	t2,a5,t2
   142cc:	d857079b          	addiw	a5,a4,-635
   142d0:	1f012083          	lw	ra,496(sp)
   142d4:	65b12023          	sw	s11,1600(sp)
   142d8:	75c12d83          	lw	s11,1884(sp)
   142dc:	02fa833b          	mulw	t1,s5,a5
   142e0:	1d812783          	lw	a5,472(sp)
   142e4:	13c2                	slli	t2,t2,0x30
   142e6:	0303d393          	srli	t2,t2,0x30
   142ea:	007d873b          	addw	a4,s11,t2
   142ee:	5e813d83          	ld	s11,1512(sp)
   142f2:	1742                	slli	a4,a4,0x30
   142f4:	9341                	srli	a4,a4,0x30
   142f6:	02f0863b          	mulw	a2,ra,a5
   142fa:	779a                	ld	a5,416(sp)
   142fc:	03031093          	slli	ra,t1,0x30
   14300:	0300d093          	srli	ra,ra,0x30
   14304:	fe86                	sd	ra,376(sp)
   14306:	0017c0b3          	xor	ra,a5,ra
   1430a:	8786                	mv	a5,ra
   1430c:	70d2                	ld	ra,304(sp)
   1430e:	00fac8b3          	xor	a7,s5,a5
   14312:	36f13023          	sd	a5,864(sp)
   14316:	0110c0b3          	xor	ra,ra,a7
   1431a:	21012783          	lw	a5,528(sp)
   1431e:	58113423          	sd	ra,1416(sp)
   14322:	3c812083          	lw	ra,968(sp)
   14326:	02f08f3b          	mulw	t5,ra,a5
   1432a:	03061093          	slli	ra,a2,0x30
   1432e:	660d                	lui	a2,0x3
   14330:	aca6079b          	addiw	a5,a2,-1334
   14334:	0300d093          	srli	ra,ra,0x30
   14338:	f706                	sd	ra,424(sp)
   1433a:	70e9                	lui	ra,0xffffa
   1433c:	02f9093b          	mulw	s2,s2,a5
   14340:	01edcf33          	xor	t5,s11,t5
   14344:	030f1a93          	slli	s5,t5,0x30
   14348:	030ada93          	srli	s5,s5,0x30
   1434c:	7ad0879b          	addiw	a5,ra,1965
   14350:	608a                	ld	ra,128(sp)
   14352:	00fa863b          	addw	a2,s5,a5
   14356:	03061793          	slli	a5,a2,0x30
   1435a:	015eceb3          	xor	t4,t4,s5
   1435e:	7616                	ld	a2,352(sp)
   14360:	5dc2                	lw	s11,48(sp)
   14362:	01d0ceb3          	xor	t4,ra,t4
   14366:	93c1                	srli	a5,a5,0x30
   14368:	15012f03          	lw	t5,336(sp)
   1436c:	39d13423          	sd	t4,904(sp)
   14370:	4e8e                	lw	t4,192(sp)
   14372:	8e3d                	xor	a2,a2,a5
   14374:	60ae                	ld	ra,200(sp)
   14376:	00cd88bb          	addw	a7,s11,a2
   1437a:	5da6                	lw	s11,104(sp)
   1437c:	03df033b          	mulw	t1,t5,t4
   14380:	1942                	slli	s2,s2,0x30
   14382:	03095913          	srli	s2,s2,0x30
   14386:	01b88dbb          	addw	s11,a7,s11
   1438a:	0124043b          	addw	s0,s0,s2
   1438e:	00c088bb          	addw	a7,ra,a2
   14392:	03041e93          	slli	t4,s0,0x30
   14396:	03089413          	slli	s0,a7,0x30
   1439a:	00c0c633          	xor	a2,ra,a2
   1439e:	9041                	srli	s0,s0,0x30
   143a0:	6089                	lui	ra,0x2
   143a2:	76012f03          	lw	t5,1888(sp)
   143a6:	e7be                	sd	a5,456(sp)
   143a8:	5bb12c23          	sw	s11,1464(sp)
   143ac:	87a2                	mv	a5,s0
   143ae:	2e012d83          	lw	s11,736(sp)
   143b2:	2870841b          	addiw	s0,ra,647
   143b6:	030ede93          	srli	t4,t4,0x30
   143ba:	6895                	lui	a7,0x5
   143bc:	008a89bb          	addw	s3,s5,s0
   143c0:	8476                	mv	s0,t4
   143c2:	65188e9b          	addiw	t4,a7,1617
   143c6:	01d408bb          	addw	a7,s0,t4
   143ca:	03089e93          	slli	t4,a7,0x30
   143ce:	03bf08bb          	mulw	a7,t5,s11
   143d2:	030ede93          	srli	t4,t4,0x30
   143d6:	fd76                	sd	t4,184(sp)
   143d8:	2d812f03          	lw	t5,728(sp)
   143dc:	03099e93          	slli	t4,s3,0x30
   143e0:	1342                	slli	t1,t1,0x30
   143e2:	79f5                	lui	s3,0xffffd
   143e4:	03035313          	srli	t1,t1,0x30
   143e8:	e1198d93          	addi	s11,s3,-495 # ffffffffffffce11 <stderr@@GLIBC_2.25+0xfffffffffffe1dd1>
   143ec:	01b34db3          	xor	s11,t1,s11
   143f0:	01e30f3b          	addw	t5,t1,t5
   143f4:	030ede93          	srli	t4,t4,0x30
   143f8:	73b13423          	sd	s11,1832(sp)
   143fc:	53013d83          	ld	s11,1328(sp)
   14400:	3dd13823          	sd	t4,976(sp)
   14404:	1f42                	slli	t5,t5,0x30
   14406:	8ebe                	mv	t4,a5
   14408:	00cec9b3          	xor	s3,t4,a2
   1440c:	030f5f13          	srli	t5,t5,0x30
   14410:	efce                	sd	s3,472(sp)
   14412:	01bf49b3          	xor	s3,t5,s11
   14416:	77012d83          	lw	s11,1904(sp)
   1441a:	30e5                	addiw	ra,ra,-7
   1441c:	18c2                	slli	a7,a7,0x30
   1441e:	9fb1                	addw	a5,a5,a2
   14420:	0308d893          	srli	a7,a7,0x30
   14424:	03b0863b          	mulw	a2,ra,s11
   14428:	0113033b          	addw	t1,t1,a7
   1442c:	03031093          	slli	ra,t1,0x30
   14430:	0300d093          	srli	ra,ra,0x30
   14434:	0113c3b3          	xor	t2,t2,a7
   14438:	5cf12c23          	sw	a5,1496(sp)
   1443c:	3dd13423          	sd	t4,968(sp)
   14440:	e586                	sd	ra,200(sp)
   14442:	e99e                	sd	t2,208(sp)
   14444:	67ee                	ld	a5,216(sp)
   14446:	77812383          	lw	t2,1912(sp)
   1444a:	21813083          	ld	ra,536(sp)
   1444e:	1642                	slli	a2,a2,0x30
   14450:	02f38ebb          	mulw	t4,t2,a5
   14454:	9241                	srli	a2,a2,0x30
   14456:	00c0c3b3          	xor	t2,ra,a2
   1445a:	30012083          	lw	ra,768(sp)
   1445e:	889e                	mv	a7,t2
   14460:	54013383          	ld	t2,1344(sp)
   14464:	011080bb          	addw	ra,ra,a7
   14468:	10c2                	slli	ra,ra,0x30
   1446a:	0300d093          	srli	ra,ra,0x30
   1446e:	0113c333          	xor	t1,t2,a7
   14472:	00164db3          	xor	s11,a2,ra
   14476:	4b113c23          	sd	a7,1208(sp)
   1447a:	91f64893          	xori	a7,a2,-1761
   1447e:	030e9613          	slli	a2,t4,0x30
   14482:	9241                	srli	a2,a2,0x30
   14484:	8e9e                	mv	t4,t2
   14486:	83b2                	mv	t2,a2
   14488:	00ce863b          	addw	a2,t4,a2
   1448c:	1642                	slli	a2,a2,0x30
   1448e:	9241                	srli	a2,a2,0x30
   14490:	18c2                	slli	a7,a7,0x30
   14492:	00664eb3          	xor	t4,a2,t1
   14496:	0308d893          	srli	a7,a7,0x30
   1449a:	7365                	lui	t1,0xffff9
   1449c:	4f113c23          	sd	a7,1272(sp)
   144a0:	f1f6                	sd	t4,224(sp)
   144a2:	78e5                	lui	a7,0xffff9
   144a4:	1ff30e93          	addi	t4,t1,511 # ffffffffffff91ff <stderr@@GLIBC_2.25+0xfffffffffffde1bf>
   144a8:	01d3c333          	xor	t1,t2,t4
   144ac:	1ff88493          	addi	s1,a7,511 # ffffffffffff91ff <stderr@@GLIBC_2.25+0xfffffffffffde1bf>
   144b0:	0090c4b3          	xor	s1,ra,s1
   144b4:	2e713823          	sd	t2,752(sp)
   144b8:	03031393          	slli	t2,t1,0x30
   144bc:	77b13023          	sd	s11,1888(sp)
   144c0:	76913823          	sd	s1,1904(sp)
   144c4:	12012d83          	lw	s11,288(sp)
   144c8:	15812483          	lw	s1,344(sp)
   144cc:	0303d393          	srli	t2,t2,0x30
   144d0:	9e3d                	addw	a2,a2,a5
   144d2:	30713423          	sd	t2,776(sp)
   144d6:	5782                	lw	a5,32(sp)
   144d8:	14012383          	lw	t2,320(sp)
   144dc:	03b488bb          	mulw	a7,s1,s11
   144e0:	3e012d83          	lw	s11,992(sp)
   144e4:	5f812483          	lw	s1,1528(sp)
   144e8:	7ea2                	ld	t4,40(sp)
   144ea:	02f383bb          	mulw	t2,t2,a5
   144ee:	67c6                	ld	a5,80(sp)
   144f0:	0117c8b3          	xor	a7,a5,a7
   144f4:	64812783          	lw	a5,1608(sp)
   144f8:	029d833b          	mulw	t1,s11,s1
   144fc:	52712823          	sw	t2,1328(sp)
   14500:	03089393          	slli	t2,a7,0x30
   14504:	5c812483          	lw	s1,1480(sp)
   14508:	0303d393          	srli	t2,t2,0x30
   1450c:	ea1e                	sd	t2,272(sp)
   1450e:	6399                	lui	t2,0x6
   14510:	7913839b          	addiw	t2,t2,1937
   14514:	029388bb          	mulw	a7,t2,s1
   14518:	03031393          	slli	t2,t1,0x30
   1451c:	4f013483          	ld	s1,1264(sp)
   14520:	737e                	ld	t1,504(sp)
   14522:	0303d393          	srli	t2,t2,0x30
   14526:	0093c4b3          	xor	s1,t2,s1
   1452a:	0063c333          	xor	t1,t2,t1
   1452e:	3e713023          	sd	t2,992(sp)
   14532:	5386                	lw	t2,96(sp)
   14534:	fb9a                	sd	t1,496(sp)
   14536:	18c2                	slli	a7,a7,0x30
   14538:	027783bb          	mulw	t2,a5,t2
   1453c:	0308d893          	srli	a7,a7,0x30
   14540:	41113023          	sd	a7,1024(sp)
   14544:	01d888bb          	addw	a7,a7,t4
   14548:	18c2                	slli	a7,a7,0x30
   1454a:	0308d893          	srli	a7,a7,0x30
   1454e:	8346                	mv	t1,a7
   14550:	20013783          	ld	a5,512(sp)
   14554:	54913023          	sd	s1,1344(sp)
   14558:	006544b3          	xor	s1,a0,t1
   1455c:	13c2                	slli	t2,t2,0x30
   1455e:	3ea13c23          	sd	a0,1016(sp)
   14562:	0303d393          	srli	t2,t2,0x30
   14566:	29812d83          	lw	s11,664(sp)
   1456a:	62913423          	sd	s1,1576(sp)
   1456e:	44ea                	lw	s1,152(sp)
   14570:	007bcbb3          	xor	s7,s7,t2
   14574:	017e4e33          	xor	t3,t3,s7
   14578:	0117c8b3          	xor	a7,a5,a7
   1457c:	01c888bb          	addw	a7,a7,t3
   14580:	20613823          	sd	t1,528(sp)
   14584:	029d833b          	mulw	t1,s11,s1
   14588:	63813d83          	ld	s11,1592(sp)
   1458c:	03089b93          	slli	s7,a7,0x30
   14590:	030bdb93          	srli	s7,s7,0x30
   14594:	21713c23          	sd	s7,536(sp)
   14598:	01be4bb3          	xor	s7,t3,s11
   1459c:	5d713423          	sd	s7,1480(sp)
   145a0:	01d3cbb3          	xor	s7,t2,t4
   145a4:	4e812483          	lw	s1,1256(sp)
   145a8:	63713c23          	sd	s7,1592(sp)
   145ac:	35812b83          	lw	s7,856(sp)
   145b0:	69813d83          	ld	s11,1688(sp)
   145b4:	50013503          	ld	a0,1280(sp)
   145b8:	03748ebb          	mulw	t4,s1,s7
   145bc:	006dcbb3          	xor	s7,s11,t1
   145c0:	5f713423          	sd	s7,1512(sp)
   145c4:	6f013d83          	ld	s11,1776(sp)
   145c8:	6f812b83          	lw	s7,1784(sp)
   145cc:	28813c23          	sd	s0,664(sp)
   145d0:	77fa                	ld	a5,440(sp)
   145d2:	1ec2                	slli	t4,t4,0x30
   145d4:	030ede93          	srli	t4,t4,0x30
   145d8:	036508bb          	mulw	a7,a0,s6
   145dc:	01db8bbb          	addw	s7,s7,t4
   145e0:	01beceb3          	xor	t4,t4,s11
   145e4:	1ec2                	slli	t4,t4,0x30
   145e6:	030ede93          	srli	t4,t4,0x30
   145ea:	008ec433          	xor	s0,t4,s0
   145ee:	15012b03          	lw	s6,336(sp)
   145f2:	6e813823          	sd	s0,1776(sp)
   145f6:	4b012403          	lw	s0,1200(sp)
   145fa:	012888bb          	addw	a7,a7,s2
   145fe:	0364033b          	mulw	t1,s0,s6
   14602:	18c2                	slli	a7,a7,0x30
   14604:	0308d893          	srli	a7,a7,0x30
   14608:	01154433          	xor	s0,a0,a7
   1460c:	5e813c23          	sd	s0,1528(sp)
   14610:	58012403          	lw	s0,1408(sp)
   14614:	694e                	ld	s2,208(sp)
   14616:	02f40e3b          	mulw	t3,s0,a5
   1461a:	1342                	slli	t1,t1,0x30
   1461c:	03035313          	srli	t1,t1,0x30
   14620:	00e34433          	xor	s0,t1,a4
   14624:	00894b33          	xor	s6,s2,s0
   14628:	00890dbb          	addw	s11,s2,s0
   1462c:	01e34f33          	xor	t5,t1,t5
   14630:	01eb4f33          	xor	t5,s6,t5
   14634:	73b12823          	sw	s11,1840(sp)
   14638:	7df9                	lui	s11,0xffffe
   1463a:	27e13823          	sd	t5,624(sp)
   1463e:	708d8d93          	addi	s11,s11,1800 # ffffffffffffe708 <stderr@@GLIBC_2.25+0xfffffffffffe36c8>
   14642:	01344f33          	xor	t5,s0,s3
   14646:	01bf4333          	xor	t1,t5,s11
   1464a:	4de13823          	sd	t5,1232(sp)
   1464e:	5c012d83          	lw	s11,1472(sp)
   14652:	1e812f03          	lw	t5,488(sp)
   14656:	1e42                	slli	t3,t3,0x30
   14658:	030e5e13          	srli	t3,t3,0x30
   1465c:	03ed893b          	mulw	s2,s11,t5
   14660:	4da2                	lw	s11,8(sp)
   14662:	01c78f3b          	addw	t5,a5,t3
   14666:	1f42                	slli	t5,t5,0x30
   14668:	01cd8e3b          	addw	t3,s11,t3
   1466c:	030e1793          	slli	a5,t3,0x30
   14670:	7e72                	ld	t3,312(sp)
   14672:	030f5f13          	srli	t5,t5,0x30
   14676:	93c1                	srli	a5,a5,0x30
   14678:	03031993          	slli	s3,t1,0x30
   1467c:	837a                	mv	t1,t5
   1467e:	00fe4db3          	xor	s11,t3,a5
   14682:	6f1e                	ld	t5,448(sp)
   14684:	e69a                	sd	t1,328(sp)
   14686:	34f13c23          	sd	a5,856(sp)
   1468a:	53b13423          	sd	s11,1320(sp)
   1468e:	5d82                	lw	s11,32(sp)
   14690:	006f4f33          	xor	t5,t5,t1
   14694:	f0fa                	sd	t5,96(sp)
   14696:	01ed833b          	addw	t1,s11,t5
   1469a:	27012d83          	lw	s11,624(sp)
   1469e:	42013f03          	ld	t5,1056(sp)
   146a2:	0309d993          	srli	s3,s3,0x30
   146a6:	01b70dbb          	addw	s11,a4,s11
   146aa:	43812703          	lw	a4,1080(sp)
   146ae:	013b0b3b          	addw	s6,s6,s3
   146b2:	75612e23          	sw	s6,1884(sp)
   146b6:	02ef073b          	mulw	a4,t5,a4
   146ba:	03031b13          	slli	s6,t1,0x30
   146be:	030b5b13          	srli	s6,s6,0x30
   146c2:	1b012483          	lw	s1,432(sp)
   146c6:	eada                	sd	s6,336(sp)
   146c8:	59812b03          	lw	s6,1432(sp)
   146cc:	24013783          	ld	a5,576(sp)
   146d0:	75b12423          	sw	s11,1864(sp)
   146d4:	59012d83          	lw	s11,1424(sp)
   146d8:	4f313423          	sd	s3,1256(sp)
   146dc:	029b0e3b          	mulw	t3,s6,s1
   146e0:	00e9093b          	addw	s2,s2,a4
   146e4:	18012b03          	lw	s6,384(sp)
   146e8:	6762                	ld	a4,24(sp)
   146ea:	1942                	slli	s2,s2,0x30
   146ec:	03095913          	srli	s2,s2,0x30
   146f0:	01274333          	xor	t1,a4,s2
   146f4:	006d833b          	addw	t1,s11,t1
   146f8:	2c812d83          	lw	s11,712(sp)
   146fc:	6d013483          	ld	s1,1744(sp)
   14700:	02fb073b          	mulw	a4,s6,a5
   14704:	030e1b13          	slli	s6,t3,0x30
   14708:	030b5b13          	srli	s6,s6,0x30
   1470c:	ff5a                	sd	s6,440(sp)
   1470e:	6c812b03          	lw	s6,1736(sp)
   14712:	1342                	slli	t1,t1,0x30
   14714:	03035313          	srli	t1,t1,0x30
   14718:	03bb0e3b          	mulw	t3,s6,s11
   1471c:	7b1e                	ld	s6,480(sp)
   1471e:	4c012d83          	lw	s11,1216(sp)
   14722:	00eb4733          	xor	a4,s6,a4
   14726:	7b5e                	ld	s6,496(sp)
   14728:	00eb4733          	xor	a4,s6,a4
   1472c:	00ed873b          	addw	a4,s11,a4
   14730:	2f813b03          	ld	s6,760(sp)
   14734:	50812d83          	lw	s11,1288(sp)
   14738:	03071993          	slli	s3,a4,0x30
   1473c:	0309d993          	srli	s3,s3,0x30
   14740:	03bb073b          	mulw	a4,s6,s11
   14744:	f04e                	sd	s3,32(sp)
   14746:	2e813983          	ld	s3,744(sp)
   1474a:	01c4ce33          	xor	t3,s1,t3
   1474e:	2f012483          	lw	s1,752(sp)
   14752:	01c9ce33          	xor	t3,s3,t3
   14756:	01cfce33          	xor	t3,t6,t3
   1475a:	030e1f93          	slli	t6,t3,0x30
   1475e:	030fdf93          	srli	t6,t6,0x30
   14762:	47f13023          	sd	t6,1120(sp)
   14766:	9f25                	addw	a4,a4,s1
   14768:	1742                	slli	a4,a4,0x30
   1476a:	8dfe                	mv	s11,t6
   1476c:	9341                	srli	a4,a4,0x30
   1476e:	46813f83          	ld	t6,1128(sp)
   14772:	89ba                	mv	s3,a4
   14774:	03878e3b          	mulw	t3,a5,s8
   14778:	30013703          	ld	a4,768(sp)
   1477c:	01fd8dbb          	addw	s11,s11,t6
   14780:	6db12423          	sw	s11,1736(sp)
   14784:	01374733          	xor	a4,a4,s3
   14788:	4f313823          	sd	s3,1264(sp)
   1478c:	8f31                	xor	a4,a4,a2
   1478e:	560e                	lw	a2,224(sp)
   14790:	53813483          	ld	s1,1336(sp)
   14794:	38013783          	ld	a5,896(sp)
   14798:	9f31                	addw	a4,a4,a2
   1479a:	030f863b          	mulw	a2,t6,a6
   1479e:	018e0e3b          	addw	t3,t3,s8
   147a2:	5fca                	lw	t6,176(sp)
   147a4:	1742                	slli	a4,a4,0x30
   147a6:	1e42                	slli	t3,t3,0x30
   147a8:	030e5e13          	srli	t3,t3,0x30
   147ac:	9341                	srli	a4,a4,0x30
   147ae:	00e080bb          	addw	ra,ra,a4
   147b2:	50e13023          	sd	a4,1280(sp)
   147b6:	01cf873b          	addw	a4,t6,t3
   147ba:	6f9d                	lui	t6,0x7
   147bc:	074f8f9b          	addiw	t6,t6,116
   147c0:	01f70c3b          	addw	s8,a4,t6
   147c4:	03009d93          	slli	s11,ra,0x30
   147c8:	70012f83          	lw	t6,1792(sp)
   147cc:	030ddd93          	srli	s11,s11,0x30
   147d0:	51b13423          	sd	s11,1288(sp)
   147d4:	03061d93          	slli	s11,a2,0x30
   147d8:	02af89bb          	mulw	s3,t6,a0
   147dc:	030ddd93          	srli	s11,s11,0x30
   147e0:	01b8073b          	addw	a4,a6,s11
   147e4:	5fe2                	lw	t6,56(sp)
   147e6:	1742                	slli	a4,a4,0x30
   147e8:	9341                	srli	a4,a4,0x30
   147ea:	00ef863b          	addw	a2,t6,a4
   147ee:	03061f93          	slli	t6,a2,0x30
   147f2:	030fdf93          	srli	t6,t6,0x30
   147f6:	47b13423          	sd	s11,1128(sp)
   147fa:	01f74db3          	xor	s11,a4,t6
   147fe:	47f13823          	sd	t6,1136(sp)
   14802:	009dcfb3          	xor	t6,s11,s1
   14806:	70813483          	ld	s1,1800(sp)
   1480a:	00e8063b          	addw	a2,a6,a4
   1480e:	013b873b          	addw	a4,s7,s3
   14812:	64c12423          	sw	a2,1608(sp)
   14816:	6df13823          	sd	t6,1744(sp)
   1481a:	39012603          	lw	a2,912(sp)
   1481e:	76812f83          	lw	t6,1896(sp)
   14822:	8f25                	xor	a4,a4,s1
   14824:	1742                	slli	a4,a4,0x30
   14826:	9341                	srli	a4,a4,0x30
   14828:	00eecbb3          	xor	s7,t4,a4
   1482c:	02cf80bb          	mulw	ra,t6,a2
   14830:	f95e                	sd	s7,176(sp)
   14832:	00e8cbb3          	xor	s7,a7,a4
   14836:	017e8ebb          	addw	t4,t4,s7
   1483a:	030e9f93          	slli	t6,t4,0x30
   1483e:	78ed                	lui	a7,0xffffb
   14840:	030fdf93          	srli	t6,t6,0x30
   14844:	ca28849b          	addiw	s1,a7,-862
   14848:	009f873b          	addw	a4,t6,s1
   1484c:	78012483          	lw	s1,1920(sp)
   14850:	49f13023          	sd	t6,1152(sp)
   14854:	30812f83          	lw	t6,776(sp)
   14858:	0364863b          	mulw	a2,s1,s6
   1485c:	10c2                	slli	ra,ra,0x30
   1485e:	0300d093          	srli	ra,ra,0x30
   14862:	47713c23          	sd	s7,1144(sp)
   14866:	03071b93          	slli	s7,a4,0x30
   1486a:	01f0873b          	addw	a4,ra,t6
   1486e:	03071f93          	slli	t6,a4,0x30
   14872:	030fdf93          	srli	t6,t6,0x30
   14876:	2ff13423          	sd	t6,744(sp)
   1487a:	6fee                	ld	t6,216(sp)
   1487c:	02ff08bb          	mulw	a7,t5,a5
   14880:	74ed                	lui	s1,0xffffb
   14882:	030bdb93          	srli	s7,s7,0x30
   14886:	00cfcfb3          	xor	t6,t6,a2
   1488a:	ca248493          	addi	s1,s1,-862 # ffffffffffffaca2 <stderr@@GLIBC_2.25+0xfffffffffffdfc62>
   1488e:	009bc733          	xor	a4,s7,s1
   14892:	69f13c23          	sd	t6,1688(sp)
   14896:	20812483          	lw	s1,520(sp)
   1489a:	5fc2                	lw	t6,48(sp)
   1489c:	49713423          	sd	s7,1160(sp)
   148a0:	18c2                	slli	a7,a7,0x30
   148a2:	03f4863b          	mulw	a2,s1,t6
   148a6:	34013f83          	ld	t6,832(sp)
   148aa:	0308d893          	srli	a7,a7,0x30
   148ae:	03071b93          	slli	s7,a4,0x30
   148b2:	011fc9b3          	xor	s3,t6,a7
   148b6:	7f71                	lui	t5,0xffffc
   148b8:	7ffd                	lui	t6,0xfffff
   148ba:	01334eb3          	xor	t4,t1,s3
   148be:	030bdb93          	srli	s7,s7,0x30
   148c2:	f7af8f93          	addi	t6,t6,-134 # ffffffffffffef7a <stderr@@GLIBC_2.25+0xfffffffffffe3f3a>
   148c6:	d77f049b          	addiw	s1,t5,-649
   148ca:	01d484bb          	addw	s1,s1,t4
   148ce:	e1de                	sd	s7,192(sp)
   148d0:	01fecbb3          	xor	s7,t4,t6
   148d4:	5f2a                	lw	t5,168(sp)
   148d6:	030b9f93          	slli	t6,s7,0x30
   148da:	58911023          	sh	s1,1408(sp)
   148de:	26812483          	lw	s1,616(sp)
   148e2:	030fdf93          	srli	t6,t6,0x30
   148e6:	01fe873b          	addw	a4,t4,t6
   148ea:	03061b93          	slli	s7,a2,0x30
   148ee:	661d                	lui	a2,0x7
   148f0:	ec7e                	sd	t6,24(sp)
   148f2:	03071f93          	slli	t6,a4,0x30
   148f6:	03e4873b          	mulw	a4,s1,t5
   148fa:	7bd60493          	addi	s1,a2,1981 # 77bd <fprintf@plt-0x8c13>
   148fe:	009ec4b3          	xor	s1,t4,s1
   14902:	f7a6                	sd	s1,488(sp)
   14904:	6499                	lui	s1,0x6
   14906:	030fdf93          	srli	t6,t6,0x30
   1490a:	def48493          	addi	s1,s1,-529 # 5def <fprintf@plt-0xa5e1>
   1490e:	009fc4b3          	xor	s1,t6,s1
   14912:	52913c23          	sd	s1,1336(sp)
   14916:	73812483          	lw	s1,1848(sp)
   1491a:	8532                	mv	a0,a2
   1491c:	5f46                	lw	t5,112(sp)
   1491e:	02d4863b          	mulw	a2,s1,a3
   14922:	00e844b3          	xor	s1,a6,a4
   14926:	58913c23          	sd	s1,1432(sp)
   1492a:	5d012483          	lw	s1,1488(sp)
   1492e:	31f13023          	sd	t6,768(sp)
   14932:	01d8c8b3          	xor	a7,a7,t4
   14936:	030bdb93          	srli	s7,s7,0x30
   1493a:	03e4873b          	mulw	a4,s1,t5
   1493e:	72012483          	lw	s1,1824(sp)
   14942:	1642                	slli	a2,a2,0x30
   14944:	9241                	srli	a2,a2,0x30
   14946:	00c48f3b          	addw	t5,s1,a2
   1494a:	75812483          	lw	s1,1880(sp)
   1494e:	1f42                	slli	t5,t5,0x30
   14950:	030f5f13          	srli	t5,t5,0x30
   14954:	f8b2                	sd	a2,112(sp)
   14956:	01e4863b          	addw	a2,s1,t5
   1495a:	01e6cb33          	xor	s6,a3,t5
   1495e:	00cf4633          	xor	a2,t5,a2
   14962:	4b613823          	sd	s6,1200(sp)
   14966:	03061b13          	slli	s6,a2,0x30
   1496a:	6615                	lui	a2,0x5
   1496c:	030b5b13          	srli	s6,s6,0x30
   14970:	9a760f9b          	addiw	t6,a2,-1625
   14974:	01fb063b          	addw	a2,s6,t6
   14978:	1642                	slli	a2,a2,0x30
   1497a:	9241                	srli	a2,a2,0x30
   1497c:	8fb2                	mv	t6,a2
   1497e:	16012483          	lw	s1,352(sp)
   14982:	5626                	lw	a2,104(sp)
   14984:	00e94733          	xor	a4,s2,a4
   14988:	01d7073b          	addw	a4,a4,t4
   1498c:	02c4863b          	mulw	a2,s1,a2
   14990:	75013483          	ld	s1,1872(sp)
   14994:	03071913          	slli	s2,a4,0x30
   14998:	28012703          	lw	a4,640(sp)
   1499c:	009fc4b3          	xor	s1,t6,s1
   149a0:	6e913c23          	sd	s1,1784(sp)
   149a4:	71812483          	lw	s1,1816(sp)
   149a8:	2d613423          	sd	s6,712(sp)
   149ac:	2c013b03          	ld	s6,704(sp)
   149b0:	03095913          	srli	s2,s2,0x30
   149b4:	02e4873b          	mulw	a4,s1,a4
   149b8:	1c812483          	lw	s1,456(sp)
   149bc:	e3ca                	sd	s2,448(sp)
   149be:	4df13023          	sd	t6,1216(sp)
   149c2:	9cb1                	addw	s1,s1,a2
   149c4:	38912823          	sw	s1,912(sp)
   149c8:	74012483          	lw	s1,1856(sp)
   149cc:	8f35                	xor	a4,a4,a3
   149ce:	00eb4733          	xor	a4,s6,a4
   149d2:	1742                	slli	a4,a4,0x30
   149d4:	0364863b          	mulw	a2,s1,s6
   149d8:	9341                	srli	a4,a4,0x30
   149da:	49a50493          	addi	s1,a0,1178 # 849a <fprintf@plt-0x7f36>
   149de:	00974933          	xor	s2,a4,s1
   149e2:	48e13823          	sd	a4,1168(sp)
   149e6:	55812483          	lw	s1,1368(sp)
   149ea:	572e                	lw	a4,232(sp)
   149ec:	2d213023          	sd	s2,704(sp)
   149f0:	2b813903          	ld	s2,696(sp)
   149f4:	02e4873b          	mulw	a4,s1,a4
   149f8:	00c94633          	xor	a2,s2,a2
   149fc:	51012483          	lw	s1,1296(sp)
   14a00:	1642                	slli	a2,a2,0x30
   14a02:	9241                	srli	a2,a2,0x30
   14a04:	f532                	sd	a2,168(sp)
   14a06:	32013903          	ld	s2,800(sp)
   14a0a:	0344863b          	mulw	a2,s1,s4
   14a0e:	03071f93          	slli	t6,a4,0x30
   14a12:	030fdf93          	srli	t6,t6,0x30
   14a16:	01f94933          	xor	s2,s2,t6
   14a1a:	8b4a                	mv	s6,s2
   14a1c:	2ff13c23          	sd	t6,760(sp)
   14a20:	64012483          	lw	s1,1600(sp)
   14a24:	25812903          	lw	s2,600(sp)
   14a28:	0324873b          	mulw	a4,s1,s2
   14a2c:	26013903          	ld	s2,608(sp)
   14a30:	10012483          	lw	s1,256(sp)
   14a34:	00c94633          	xor	a2,s2,a2
   14a38:	00ca4a33          	xor	s4,s4,a2
   14a3c:	23813603          	ld	a2,568(sp)
   14a40:	1a42                	slli	s4,s4,0x30
   14a42:	030a5a13          	srli	s4,s4,0x30
   14a46:	00ca4933          	xor	s2,s4,a2
   14a4a:	ed4a                	sd	s2,152(sp)
   14a4c:	7969                	lui	s2,0xffffa
   14a4e:	cd29061b          	addiw	a2,s2,-814
   14a52:	02c484bb          	mulw	s1,s1,a2
   14a56:	5c912023          	sw	s1,1472(sp)
   14a5a:	649d                	lui	s1,0x7
   14a5c:	9a14849b          	addiw	s1,s1,-1631
   14a60:	9f25                	addw	a4,a4,s1
   14a62:	54ee                	lw	s1,248(sp)
   14a64:	03071613          	slli	a2,a4,0x30
   14a68:	9241                	srli	a2,a2,0x30
   14a6a:	0295873b          	mulw	a4,a1,s1
   14a6e:	34812483          	lw	s1,840(sp)
   14a72:	26c13023          	sd	a2,608(sp)
   14a76:	fdda                	sd	s6,248(sp)
   14a78:	02548fbb          	mulw	t6,s1,t0
   14a7c:	03071293          	slli	t0,a4,0x30
   14a80:	0302d293          	srli	t0,t0,0x30
   14a84:	0162873b          	addw	a4,t0,s6
   14a88:	03071913          	slli	s2,a4,0x30
   14a8c:	55015703          	lhu	a4,1360(sp)
   14a90:	03095913          	srli	s2,s2,0x30
   14a94:	f816                	sd	t0,48(sp)
   14a96:	00e942b3          	xor	t0,s2,a4
   14a9a:	67812483          	lw	s1,1656(sp)
   14a9e:	50513823          	sd	t0,1296(sp)
   14aa2:	5f012283          	lw	t0,1520(sp)
   14aa6:	1fc2                	slli	t6,t6,0x30
   14aa8:	030fdf93          	srli	t6,t6,0x30
   14aac:	0254863b          	mulw	a2,s1,t0
   14ab0:	42c6                	lw	t0,80(sp)
   14ab2:	e24a                	sd	s2,256(sp)
   14ab4:	6b2a                	ld	s6,136(sp)
   14ab6:	005f893b          	addw	s2,t6,t0
   14aba:	12012283          	lw	t0,288(sp)
   14abe:	44812483          	lw	s1,1096(sp)
   14ac2:	0059093b          	addw	s2,s2,t0
   14ac6:	1942                	slli	s2,s2,0x30
   14ac8:	6291                	lui	t0,0x4
   14aca:	03095913          	srli	s2,s2,0x30
   14ace:	329d                	addiw	t0,t0,-25
   14ad0:	0059073b          	addw	a4,s2,t0
   14ad4:	23012283          	lw	t0,560(sp)
   14ad8:	00cb4633          	xor	a2,s6,a2
   14adc:	7b7d                	lui	s6,0xfffff
   14ade:	005f8fbb          	addw	t6,t6,t0
   14ae2:	03071293          	slli	t0,a4,0x30
   14ae6:	0302d293          	srli	t0,t0,0x30
   14aea:	f216                	sd	t0,288(sp)
   14aec:	528a                	lw	t0,160(sp)
   14aee:	0292873b          	mulw	a4,t0,s1
   14af2:	41012483          	lw	s1,1040(sp)
   14af6:	03061293          	slli	t0,a2,0x30
   14afa:	0302d293          	srli	t0,t0,0x30
   14afe:	0092863b          	addw	a2,t0,s1
   14b02:	42513023          	sd	t0,1056(sp)
   14b06:	03061293          	slli	t0,a2,0x30
   14b0a:	0302d293          	srli	t0,t0,0x30
   14b0e:	15812483          	lw	s1,344(sp)
   14b12:	20513423          	sd	t0,520(sp)
   14b16:	3d812283          	lw	t0,984(sp)
   14b1a:	0292863b          	mulw	a2,t0,s1
   14b1e:	03071293          	slli	t0,a4,0x30
   14b22:	0302d293          	srli	t0,t0,0x30
   14b26:	e516                	sd	t0,136(sp)
   14b28:	42e6                	lw	t0,88(sp)
   14b2a:	39fb049b          	addiw	s1,s6,927
   14b2e:	02928b3b          	mulw	s6,t0,s1
   14b32:	35013283          	ld	t0,848(sp)
   14b36:	2d013503          	ld	a0,720(sp)
   14b3a:	40812483          	lw	s1,1032(sp)
   14b3e:	00c2c733          	xor	a4,t0,a2
   14b42:	ce774713          	xori	a4,a4,-793
   14b46:	1742                	slli	a4,a4,0x30
   14b48:	9341                	srli	a4,a4,0x30
   14b4a:	00e542b3          	xor	t0,a0,a4
   14b4e:	fc16                	sd	t0,56(sp)
   14b50:	7632                	ld	a2,296(sp)
   14b52:	5a012283          	lw	t0,1440(sp)
   14b56:	1b42                	slli	s6,s6,0x30
   14b58:	030b5b13          	srli	s6,s6,0x30
   14b5c:	01664633          	xor	a2,a2,s6
   14b60:	029282bb          	mulw	t0,t0,s1
   14b64:	01650b3b          	addw	s6,a0,s6
   14b68:	1b42                	slli	s6,s6,0x30
   14b6a:	030b5b13          	srli	s6,s6,0x30
   14b6e:	84da                	mv	s1,s6
   14b70:	0169093b          	addw	s2,s2,s6
   14b74:	33613023          	sd	s6,800(sp)
   14b78:	5b62                	lw	s6,56(sp)
   14b7a:	1942                	slli	s2,s2,0x30
   14b7c:	03095913          	srli	s2,s2,0x30
   14b80:	ecca                	sd	s2,88(sp)
   14b82:	0164893b          	addw	s2,s1,s6
   14b86:	1942                	slli	s2,s2,0x30
   14b88:	66012483          	lw	s1,1632(sp)
   14b8c:	24812b03          	lw	s6,584(sp)
   14b90:	03095913          	srli	s2,s2,0x30
   14b94:	35213423          	sd	s2,840(sp)
   14b98:	694a                	ld	s2,144(sp)
   14b9a:	03648b3b          	mulw	s6,s1,s6
   14b9e:	12c2                	slli	t0,t0,0x30
   14ba0:	0302d293          	srli	t0,t0,0x30
   14ba4:	005944b3          	xor	s1,s2,t0
   14ba8:	7ee2c913          	xori	s2,t0,2030
   14bac:	55213c23          	sd	s2,1368(sp)
   14bb0:	20813903          	ld	s2,520(sp)
   14bb4:	42913c23          	sd	s1,1080(sp)
   14bb8:	52012503          	lw	a0,1312(sp)
   14bbc:	0124c4b3          	xor	s1,s1,s2
   14bc0:	60013903          	ld	s2,1536(sp)
   14bc4:	1b42                	slli	s6,s6,0x30
   14bc6:	030b5b13          	srli	s6,s6,0x30
   14bca:	0124c933          	xor	s2,s1,s2
   14bce:	23213823          	sd	s2,560(sp)
   14bd2:	51812903          	lw	s2,1304(sp)
   14bd6:	014b4a33          	xor	s4,s6,s4
   14bda:	02a9093b          	mulw	s2,s2,a0
   14bde:	8552                	mv	a0,s4
   14be0:	41813a03          	ld	s4,1048(sp)
   14be4:	44a13423          	sd	a0,1096(sp)
   14be8:	014b4a33          	xor	s4,s6,s4
   14bec:	25413023          	sd	s4,576(sp)
   14bf0:	23813a03          	ld	s4,568(sp)
   14bf4:	3f012b03          	lw	s6,1008(sp)
   14bf8:	00aa4533          	xor	a0,s4,a0
   14bfc:	53012a03          	lw	s4,1328(sp)
   14c00:	1942                	slli	s2,s2,0x30
   14c02:	03095913          	srli	s2,s2,0x30
   14c06:	036a0b3b          	mulw	s6,s4,s6
   14c0a:	00c94a33          	xor	s4,s2,a2
   14c0e:	edd2                	sd	s4,216(sp)
   14c10:	5a62                	lw	s4,56(sp)
   14c12:	17812603          	lw	a2,376(sp)
   14c16:	01490a3b          	addw	s4,s2,s4
   14c1a:	51412c23          	sw	s4,1304(sp)
   14c1e:	13012a03          	lw	s4,304(sp)
   14c22:	1b42                	slli	s6,s6,0x30
   14c24:	030b5b13          	srli	s6,s6,0x30
   14c28:	02ca0a3b          	mulw	s4,s4,a2
   14c2c:	e45a                	sd	s6,8(sp)
   14c2e:	1a812b03          	lw	s6,424(sp)
   14c32:	767d                	lui	a2,0xfffff
   14c34:	5de6061b          	addiw	a2,a2,1502
   14c38:	02cb063b          	mulw	a2,s6,a2
   14c3c:	1a42                	slli	s4,s4,0x30
   14c3e:	030a5a13          	srli	s4,s4,0x30
   14c42:	e352                	sd	s4,384(sp)
   14c44:	61012a03          	lw	s4,1552(sp)
   14c48:	2b012b03          	lw	s6,688(sp)
   14c4c:	1642                	slli	a2,a2,0x30
   14c4e:	9241                	srli	a2,a2,0x30
   14c50:	036a0a3b          	mulw	s4,s4,s6
   14c54:	01d60b3b          	addw	s6,a2,t4
   14c58:	1b42                	slli	s6,s6,0x30
   14c5a:	030b5b13          	srli	s6,s6,0x30
   14c5e:	0066033b          	addw	t1,a2,t1
   14c62:	011b48b3          	xor	a7,s6,a7
   14c66:	0069c333          	xor	t1,s3,t1
   14c6a:	763e                	ld	a2,488(sp)
   14c6c:	5b113023          	sd	a7,1440(sp)
   14c70:	03031893          	slli	a7,t1,0x30
   14c74:	0308d893          	srli	a7,a7,0x30
   14c78:	00c8c633          	xor	a2,a7,a2
   14c7c:	52c13823          	sd	a2,1328(sp)
   14c80:	3f812603          	lw	a2,1016(sp)
   14c84:	39113023          	sd	a7,896(sp)
   14c88:	030a1893          	slli	a7,s4,0x30
   14c8c:	02c383bb          	mulw	t2,t2,a2
   14c90:	7a66                	ld	s4,120(sp)
   14c92:	0308d893          	srli	a7,a7,0x30
   14c96:	5322                	lw	t1,40(sp)
   14c98:	011a4633          	xor	a2,s4,a7
   14c9c:	54013a03          	ld	s4,1344(sp)
   14ca0:	3ec13c23          	sd	a2,1016(sp)
   14ca4:	3f113823          	sd	a7,1008(sp)
   14ca8:	01464a33          	xor	s4,a2,s4
   14cac:	55413023          	sd	s4,1344(sp)
   14cb0:	40012a03          	lw	s4,1024(sp)
   14cb4:	13c2                	slli	t2,t2,0x30
   14cb6:	0303d393          	srli	t2,t2,0x30
   14cba:	026a033b          	mulw	t1,s4,t1
   14cbe:	6a1d                	lui	s4,0x7
   14cc0:	2a6a0a13          	addi	s4,s4,678 # 72a6 <fprintf@plt-0x912a>
   14cc4:	40713023          	sd	t2,1024(sp)
   14cc8:	0143c3b3          	xor	t2,t2,s4
   14ccc:	5c812a03          	lw	s4,1480(sp)
   14cd0:	40713423          	sd	t2,1032(sp)
   14cd4:	44013983          	ld	s3,1088(sp)
   14cd8:	007a063b          	addw	a2,s4,t2
   14cdc:	21013a03          	ld	s4,528(sp)
   14ce0:	1342                	slli	t1,t1,0x30
   14ce2:	03035313          	srli	t1,t1,0x30
   14ce6:	00ca4633          	xor	a2,s4,a2
   14cea:	03061a13          	slli	s4,a2,0x30
   14cee:	03ac863b          	mulw	a2,s9,s10
   14cf2:	20012c83          	lw	s9,512(sp)
   14cf6:	030a5a13          	srli	s4,s4,0x30
   14cfa:	41413c23          	sd	s4,1048(sp)
   14cfe:	006c88bb          	addw	a7,s9,t1
   14d02:	25013c83          	ld	s9,592(sp)
   14d06:	18c2                	slli	a7,a7,0x30
   14d08:	0308d893          	srli	a7,a7,0x30
   14d0c:	006cccb3          	xor	s9,s9,t1
   14d10:	61913823          	sd	s9,1552(sp)
   14d14:	21813c83          	ld	s9,536(sp)
   14d18:	007883bb          	addw	t2,a7,t2
   14d1c:	1642                	slli	a2,a2,0x30
   14d1e:	011cccb3          	xor	s9,s9,a7
   14d22:	21913023          	sd	s9,512(sp)
   14d26:	03039c93          	slli	s9,t2,0x30
   14d2a:	5e812383          	lw	t2,1512(sp)
   14d2e:	030cdc93          	srli	s9,s9,0x30
   14d32:	88e6                	mv	a7,s9
   14d34:	033383bb          	mulw	t2,t2,s3
   14d38:	41913823          	sd	s9,1040(sp)
   14d3c:	6cea                	ld	s9,152(sp)
   14d3e:	9241                	srli	a2,a2,0x30
   14d40:	00cd0d3b          	addw	s10,s10,a2
   14d44:	01accd33          	xor	s10,s9,s10
   14d48:	1d42                	slli	s10,s10,0x30
   14d4a:	0148ca33          	xor	s4,a7,s4
   14d4e:	030d5d13          	srli	s10,s10,0x30
   14d52:	35613823          	sd	s6,848(sp)
   14d56:	58712823          	sw	t2,1424(sp)
   14d5a:	25a13423          	sd	s10,584(sp)
   14d5e:	65413023          	sd	s4,1600(sp)
   14d62:	24013a03          	ld	s4,576(sp)
   14d66:	2a012383          	lw	t2,672(sp)
   14d6a:	49813b03          	ld	s6,1176(sp)
   14d6e:	01464d33          	xor	s10,a2,s4
   14d72:	5da13823          	sd	s10,1488(sp)
   14d76:	68013d03          	ld	s10,1664(sp)
   14d7a:	7a02                	ld	s4,32(sp)
   14d7c:	01a64d33          	xor	s10,a2,s10
   14d80:	67a13423          	sd	s10,1640(sp)
   14d84:	11012d03          	lw	s10,272(sp)
   14d88:	027d08bb          	mulw	a7,s10,t2
   14d8c:	1b812383          	lw	t2,440(sp)
   14d90:	02778d3b          	mulw	s10,a5,t2
   14d94:	01174733          	xor	a4,a4,a7
   14d98:	3e013383          	ld	t2,992(sp)
   14d9c:	53a12023          	sw	s10,1312(sp)
   14da0:	03071d13          	slli	s10,a4,0x30
   14da4:	030d5d13          	srli	s10,s10,0x30
   14da8:	35a13023          	sd	s10,832(sp)
   14dac:	01a94d33          	xor	s10,s2,s10
   14db0:	fa6a                	sd	s10,304(sp)
   14db2:	1f812703          	lw	a4,504(sp)
   14db6:	45012d03          	lw	s10,1104(sp)
   14dba:	03a7073b          	mulw	a4,a4,s10
   14dbe:	4d2e                	lw	s10,200(sp)
   14dc0:	028d043b          	mulw	s0,s10,s0
   14dc4:	03071d13          	slli	s10,a4,0x30
   14dc8:	030d5d13          	srli	s10,s10,0x30
   14dcc:	01a3c933          	xor	s2,t2,s10
   14dd0:	012a4933          	xor	s2,s4,s2
   14dd4:	01894733          	xor	a4,s2,s8
   14dd8:	03071c13          	slli	s8,a4,0x30
   14ddc:	030c5c13          	srli	s8,s8,0x30
   14de0:	43a6                	lw	t2,72(sp)
   14de2:	f7e2                	sd	s8,488(sp)
